
slave.elf:     file format elf32-avr

Sections:
Idx Name          Size      VMA       LMA       File off  Algn
  0 .data         00000230  00800200  00002e92  00002f26  2**0
                  CONTENTS, ALLOC, LOAD, DATA
  1 .text         00002e92  00000000  00000000  00000094  2**1
                  CONTENTS, ALLOC, LOAD, READONLY, CODE
  2 .bss          0000266c  00800430  00800430  00003156  2**0
                  ALLOC
  3 .debug_aranges 00000020  00000000  00000000  00003156  2**0
                  CONTENTS, READONLY, DEBUGGING
  4 .debug_pubnames 000006ae  00000000  00000000  00003176  2**0
                  CONTENTS, READONLY, DEBUGGING
  5 .debug_info   00002ab0  00000000  00000000  00003824  2**0
                  CONTENTS, READONLY, DEBUGGING
  6 .debug_abbrev 000003f3  00000000  00000000  000062d4  2**0
                  CONTENTS, READONLY, DEBUGGING
  7 .debug_line   000025a2  00000000  00000000  000066c7  2**0
                  CONTENTS, READONLY, DEBUGGING
  8 .debug_frame  000004c0  00000000  00000000  00008c6c  2**2
                  CONTENTS, READONLY, DEBUGGING
  9 .debug_str    000006bc  00000000  00000000  0000912c  2**0
                  CONTENTS, READONLY, DEBUGGING
 10 .debug_loc    000012b4  00000000  00000000  000097e8  2**0
                  CONTENTS, READONLY, DEBUGGING
 11 .debug_ranges 00000230  00000000  00000000  0000aa9c  2**0
                  CONTENTS, READONLY, DEBUGGING

Disassembly of section .text:

00000000 <__vectors>:
       0:	0c 94 72 00 	jmp	0xe4	; 0xe4 <__ctors_end>
       4:	0c 94 93 00 	jmp	0x126	; 0x126 <__bad_interrupt>
       8:	0c 94 93 00 	jmp	0x126	; 0x126 <__bad_interrupt>
       c:	0c 94 93 00 	jmp	0x126	; 0x126 <__bad_interrupt>
      10:	0c 94 93 00 	jmp	0x126	; 0x126 <__bad_interrupt>
      14:	0c 94 54 04 	jmp	0x8a8	; 0x8a8 <__vector_5>
      18:	0c 94 2f 04 	jmp	0x85e	; 0x85e <__vector_6>
      1c:	0c 94 93 00 	jmp	0x126	; 0x126 <__bad_interrupt>
      20:	0c 94 93 00 	jmp	0x126	; 0x126 <__bad_interrupt>
      24:	0c 94 93 00 	jmp	0x126	; 0x126 <__bad_interrupt>
      28:	0c 94 93 00 	jmp	0x126	; 0x126 <__bad_interrupt>
      2c:	0c 94 93 00 	jmp	0x126	; 0x126 <__bad_interrupt>
      30:	0c 94 93 00 	jmp	0x126	; 0x126 <__bad_interrupt>
      34:	0c 94 93 00 	jmp	0x126	; 0x126 <__bad_interrupt>
      38:	0c 94 93 00 	jmp	0x126	; 0x126 <__bad_interrupt>
      3c:	0c 94 93 00 	jmp	0x126	; 0x126 <__bad_interrupt>
      40:	0c 94 93 00 	jmp	0x126	; 0x126 <__bad_interrupt>
      44:	0c 94 93 00 	jmp	0x126	; 0x126 <__bad_interrupt>
      48:	0c 94 93 00 	jmp	0x126	; 0x126 <__bad_interrupt>
      4c:	0c 94 93 00 	jmp	0x126	; 0x126 <__bad_interrupt>
      50:	0c 94 93 00 	jmp	0x126	; 0x126 <__bad_interrupt>
      54:	0c 94 93 00 	jmp	0x126	; 0x126 <__bad_interrupt>
      58:	0c 94 93 00 	jmp	0x126	; 0x126 <__bad_interrupt>
      5c:	0c 94 93 00 	jmp	0x126	; 0x126 <__bad_interrupt>
      60:	0c 94 93 00 	jmp	0x126	; 0x126 <__bad_interrupt>
      64:	0c 94 0a 09 	jmp	0x1214	; 0x1214 <__vector_25>
      68:	0c 94 93 00 	jmp	0x126	; 0x126 <__bad_interrupt>
      6c:	0c 94 93 00 	jmp	0x126	; 0x126 <__bad_interrupt>
      70:	0c 94 93 00 	jmp	0x126	; 0x126 <__bad_interrupt>
      74:	0c 94 93 00 	jmp	0x126	; 0x126 <__bad_interrupt>
      78:	0c 94 93 00 	jmp	0x126	; 0x126 <__bad_interrupt>
      7c:	0c 94 93 00 	jmp	0x126	; 0x126 <__bad_interrupt>
      80:	0c 94 93 00 	jmp	0x126	; 0x126 <__bad_interrupt>
      84:	0c 94 93 00 	jmp	0x126	; 0x126 <__bad_interrupt>
      88:	0c 94 93 00 	jmp	0x126	; 0x126 <__bad_interrupt>
      8c:	0c 94 93 00 	jmp	0x126	; 0x126 <__bad_interrupt>
      90:	0c 94 93 00 	jmp	0x126	; 0x126 <__bad_interrupt>
      94:	0c 94 93 00 	jmp	0x126	; 0x126 <__bad_interrupt>
      98:	0c 94 93 00 	jmp	0x126	; 0x126 <__bad_interrupt>
      9c:	0c 94 93 00 	jmp	0x126	; 0x126 <__bad_interrupt>
      a0:	0c 94 93 00 	jmp	0x126	; 0x126 <__bad_interrupt>
      a4:	0c 94 93 00 	jmp	0x126	; 0x126 <__bad_interrupt>
      a8:	0c 94 93 00 	jmp	0x126	; 0x126 <__bad_interrupt>
      ac:	0c 94 93 00 	jmp	0x126	; 0x126 <__bad_interrupt>
      b0:	0c 94 93 00 	jmp	0x126	; 0x126 <__bad_interrupt>
      b4:	0c 94 93 00 	jmp	0x126	; 0x126 <__bad_interrupt>
      b8:	0c 94 93 00 	jmp	0x126	; 0x126 <__bad_interrupt>
      bc:	0c 94 93 00 	jmp	0x126	; 0x126 <__bad_interrupt>
      c0:	0c 94 93 00 	jmp	0x126	; 0x126 <__bad_interrupt>
      c4:	0c 94 93 00 	jmp	0x126	; 0x126 <__bad_interrupt>
      c8:	0c 94 93 00 	jmp	0x126	; 0x126 <__bad_interrupt>
      cc:	0c 94 93 00 	jmp	0x126	; 0x126 <__bad_interrupt>
      d0:	0c 94 93 00 	jmp	0x126	; 0x126 <__bad_interrupt>
      d4:	0c 94 93 00 	jmp	0x126	; 0x126 <__bad_interrupt>
      d8:	0c 94 93 00 	jmp	0x126	; 0x126 <__bad_interrupt>
      dc:	0c 94 93 00 	jmp	0x126	; 0x126 <__bad_interrupt>
      e0:	0c 94 93 00 	jmp	0x126	; 0x126 <__bad_interrupt>

000000e4 <__ctors_end>:
      e4:	11 24       	eor	r1, r1
      e6:	1f be       	out	0x3f, r1	; 63
      e8:	cf ef       	ldi	r28, 0xFF	; 255
      ea:	d1 e2       	ldi	r29, 0x21	; 33
      ec:	de bf       	out	0x3e, r29	; 62
      ee:	cd bf       	out	0x3d, r28	; 61
      f0:	00 e0       	ldi	r16, 0x00	; 0
      f2:	0c bf       	out	0x3c, r16	; 60

000000f4 <__do_copy_data>:
      f4:	14 e0       	ldi	r17, 0x04	; 4
      f6:	a0 e0       	ldi	r26, 0x00	; 0
      f8:	b2 e0       	ldi	r27, 0x02	; 2
      fa:	e2 e9       	ldi	r30, 0x92	; 146
      fc:	fe e2       	ldi	r31, 0x2E	; 46
      fe:	00 e0       	ldi	r16, 0x00	; 0
     100:	0b bf       	out	0x3b, r16	; 59
     102:	02 c0       	rjmp	.+4      	; 0x108 <__do_copy_data+0x14>
     104:	07 90       	elpm	r0, Z+
     106:	0d 92       	st	X+, r0
     108:	a0 33       	cpi	r26, 0x30	; 48
     10a:	b1 07       	cpc	r27, r17
     10c:	d9 f7       	brne	.-10     	; 0x104 <__do_copy_data+0x10>

0000010e <__do_clear_bss>:
     10e:	1a e2       	ldi	r17, 0x2A	; 42
     110:	a0 e3       	ldi	r26, 0x30	; 48
     112:	b4 e0       	ldi	r27, 0x04	; 4
     114:	01 c0       	rjmp	.+2      	; 0x118 <.do_clear_bss_start>

00000116 <.do_clear_bss_loop>:
     116:	1d 92       	st	X+, r1

00000118 <.do_clear_bss_start>:
     118:	ac 39       	cpi	r26, 0x9C	; 156
     11a:	b1 07       	cpc	r27, r17
     11c:	e1 f7       	brne	.-8      	; 0x116 <.do_clear_bss_loop>
     11e:	0e 94 ea 0f 	call	0x1fd4	; 0x1fd4 <main>
     122:	0c 94 47 17 	jmp	0x2e8e	; 0x2e8e <_exit>

00000126 <__bad_interrupt>:
     126:	0c 94 00 00 	jmp	0	; 0x0 <__vectors>

0000012a <IsEmpty>:
void EmptyQueue(struct Queue *Q) {
	while(Q->head!=NULL)
		DeQueue(Q);
}

int IsEmpty(struct Queue *Q){
     12a:	fc 01       	movw	r30, r24
     12c:	20 e0       	ldi	r18, 0x00	; 0
     12e:	30 e0       	ldi	r19, 0x00	; 0
     130:	80 81       	ld	r24, Z
     132:	91 81       	ldd	r25, Z+1	; 0x01
     134:	89 2b       	or	r24, r25
     136:	11 f4       	brne	.+4      	; 0x13c <IsEmpty+0x12>
     138:	21 e0       	ldi	r18, 0x01	; 1
     13a:	30 e0       	ldi	r19, 0x00	; 0
	return (Q->head==NULL) ? 1 : 0 ;
}
     13c:	c9 01       	movw	r24, r18
     13e:	08 95       	ret

00000140 <initMap>:
	*Output: integer-> 0 if everything was successful
	*Logic: Initializes the map with the know map.
	*		Required only at the begining.
	*Example Call: initMap();
*/
int initMap () {
     140:	cf 93       	push	r28
     142:	df 93       	push	r29
     144:	20 e0       	ldi	r18, 0x00	; 0
     146:	30 e0       	ldi	r19, 0x00	; 0
	//Initializes each nodes as unconnected
	for (int i = 0; i < size; i++)
     148:	62 e6       	ldi	r22, 0x62	; 98
     14a:	70 e0       	ldi	r23, 0x00	; 0
		for (int j = 0; j < size; j++)
			map [i][j] = INF;
     14c:	40 ec       	ldi	r20, 0xC0	; 192
     14e:	57 e2       	ldi	r21, 0x27	; 39
     150:	10 c0       	rjmp	.+32     	; 0x172 <initMap+0x32>
     152:	41 93       	st	Z+, r20
     154:	51 93       	st	Z+, r21
	*Example Call: initMap();
*/
int initMap () {
	//Initializes each nodes as unconnected
	for (int i = 0; i < size; i++)
		for (int j = 0; j < size; j++)
     156:	01 96       	adiw	r24, 0x01	; 1
     158:	81 33       	cpi	r24, 0x31	; 49
     15a:	91 05       	cpc	r25, r1
     15c:	d1 f7       	brne	.-12     	; 0x152 <initMap+0x12>
	*		Required only at the begining.
	*Example Call: initMap();
*/
int initMap () {
	//Initializes each nodes as unconnected
	for (int i = 0; i < size; i++)
     15e:	2f 5f       	subi	r18, 0xFF	; 255
     160:	3f 4f       	sbci	r19, 0xFF	; 255
     162:	21 33       	cpi	r18, 0x31	; 49
     164:	31 05       	cpc	r19, r1
     166:	29 f4       	brne	.+10     	; 0x172 <initMap+0x32>
     168:	41 e0       	ldi	r20, 0x01	; 1
     16a:	50 e0       	ldi	r21, 0x00	; 0
		for (int j = 0; j < size; j++)
			map [i][j] = INF;
	//Connects nodes 1 through 24 in sequential order
	for (int i = 1; i < 25; i++)
     16c:	62 e6       	ldi	r22, 0x62	; 98
     16e:	70 e0       	ldi	r23, 0x00	; 0
     170:	29 c0       	rjmp	.+82     	; 0x1c4 <initMap+0x84>
	*		Required only at the begining.
	*Example Call: initMap();
*/
int initMap () {
	//Initializes each nodes as unconnected
	for (int i = 0; i < size; i++)
     172:	26 9f       	mul	r18, r22
     174:	f0 01       	movw	r30, r0
     176:	27 9f       	mul	r18, r23
     178:	f0 0d       	add	r31, r0
     17a:	36 9f       	mul	r19, r22
     17c:	f0 0d       	add	r31, r0
     17e:	11 24       	eor	r1, r1
     180:	e6 5b       	subi	r30, 0xB6	; 182
     182:	fb 4f       	sbci	r31, 0xFB	; 251
     184:	80 e0       	ldi	r24, 0x00	; 0
     186:	90 e0       	ldi	r25, 0x00	; 0
     188:	e4 cf       	rjmp	.-56     	; 0x152 <initMap+0x12>
		for (int j = 0; j < size; j++)
			map [i][j] = INF;
	//Connects nodes 1 through 24 in sequential order
	for (int i = 1; i < 25; i++)
		for (int j = 1; j < 25; j++)
			if (abs(i-j) == 1)
     18a:	ca 01       	movw	r24, r20
     18c:	82 1b       	sub	r24, r18
     18e:	93 0b       	sbc	r25, r19
     190:	97 ff       	sbrs	r25, 7
     192:	03 c0       	rjmp	.+6      	; 0x19a <initMap+0x5a>
     194:	90 95       	com	r25
     196:	81 95       	neg	r24
     198:	9f 4f       	sbci	r25, 0xFF	; 255
     19a:	81 30       	cpi	r24, 0x01	; 1
     19c:	91 05       	cpc	r25, r1
     19e:	11 f4       	brne	.+4      	; 0x1a4 <initMap+0x64>
				map[i][j] = 1;
     1a0:	91 83       	std	Z+1, r25	; 0x01
     1a2:	80 83       	st	Z, r24
	for (int i = 0; i < size; i++)
		for (int j = 0; j < size; j++)
			map [i][j] = INF;
	//Connects nodes 1 through 24 in sequential order
	for (int i = 1; i < 25; i++)
		for (int j = 1; j < 25; j++)
     1a4:	2f 5f       	subi	r18, 0xFF	; 255
     1a6:	3f 4f       	sbci	r19, 0xFF	; 255
     1a8:	32 96       	adiw	r30, 0x02	; 2
     1aa:	29 31       	cpi	r18, 0x19	; 25
     1ac:	31 05       	cpc	r19, r1
     1ae:	69 f7       	brne	.-38     	; 0x18a <initMap+0x4a>
	//Initializes each nodes as unconnected
	for (int i = 0; i < size; i++)
		for (int j = 0; j < size; j++)
			map [i][j] = INF;
	//Connects nodes 1 through 24 in sequential order
	for (int i = 1; i < 25; i++)
     1b0:	4f 5f       	subi	r20, 0xFF	; 255
     1b2:	5f 4f       	sbci	r21, 0xFF	; 255
     1b4:	49 31       	cpi	r20, 0x19	; 25
     1b6:	51 05       	cpc	r21, r1
     1b8:	29 f4       	brne	.+10     	; 0x1c4 <initMap+0x84>
     1ba:	49 e1       	ldi	r20, 0x19	; 25
     1bc:	50 e0       	ldi	r21, 0x00	; 0
		for (int j = 1; j < 25; j++)
			if (abs(i-j) == 1)
				map[i][j] = 1;
	//Connects nodes 25 through 38 in sequential order
	for (int i = 25; i < 39; i++)
     1be:	62 e6       	ldi	r22, 0x62	; 98
     1c0:	70 e0       	ldi	r23, 0x00	; 0
     1c2:	24 c0       	rjmp	.+72     	; 0x20c <initMap+0xcc>
	//Initializes each nodes as unconnected
	for (int i = 0; i < size; i++)
		for (int j = 0; j < size; j++)
			map [i][j] = INF;
	//Connects nodes 1 through 24 in sequential order
	for (int i = 1; i < 25; i++)
     1c4:	46 9f       	mul	r20, r22
     1c6:	f0 01       	movw	r30, r0
     1c8:	47 9f       	mul	r20, r23
     1ca:	f0 0d       	add	r31, r0
     1cc:	56 9f       	mul	r21, r22
     1ce:	f0 0d       	add	r31, r0
     1d0:	11 24       	eor	r1, r1
     1d2:	e4 5b       	subi	r30, 0xB4	; 180
     1d4:	fb 4f       	sbci	r31, 0xFB	; 251
     1d6:	21 e0       	ldi	r18, 0x01	; 1
     1d8:	30 e0       	ldi	r19, 0x00	; 0
     1da:	d7 cf       	rjmp	.-82     	; 0x18a <initMap+0x4a>
			if (abs(i-j) == 1)
				map[i][j] = 1;
	//Connects nodes 25 through 38 in sequential order
	for (int i = 25; i < 39; i++)
		for (int j = 25; j < 39; j++)
			if (abs(i-j) == 1)
     1dc:	ca 01       	movw	r24, r20
     1de:	82 1b       	sub	r24, r18
     1e0:	93 0b       	sbc	r25, r19
     1e2:	97 ff       	sbrs	r25, 7
     1e4:	03 c0       	rjmp	.+6      	; 0x1ec <initMap+0xac>
     1e6:	90 95       	com	r25
     1e8:	81 95       	neg	r24
     1ea:	9f 4f       	sbci	r25, 0xFF	; 255
     1ec:	81 30       	cpi	r24, 0x01	; 1
     1ee:	91 05       	cpc	r25, r1
     1f0:	11 f4       	brne	.+4      	; 0x1f6 <initMap+0xb6>
				map[i][j] = 1;
     1f2:	91 83       	std	Z+1, r25	; 0x01
     1f4:	80 83       	st	Z, r24
		for (int j = 1; j < 25; j++)
			if (abs(i-j) == 1)
				map[i][j] = 1;
	//Connects nodes 25 through 38 in sequential order
	for (int i = 25; i < 39; i++)
		for (int j = 25; j < 39; j++)
     1f6:	2f 5f       	subi	r18, 0xFF	; 255
     1f8:	3f 4f       	sbci	r19, 0xFF	; 255
     1fa:	32 96       	adiw	r30, 0x02	; 2
     1fc:	27 32       	cpi	r18, 0x27	; 39
     1fe:	31 05       	cpc	r19, r1
     200:	69 f7       	brne	.-38     	; 0x1dc <initMap+0x9c>
	for (int i = 1; i < 25; i++)
		for (int j = 1; j < 25; j++)
			if (abs(i-j) == 1)
				map[i][j] = 1;
	//Connects nodes 25 through 38 in sequential order
	for (int i = 25; i < 39; i++)
     202:	4f 5f       	subi	r20, 0xFF	; 255
     204:	5f 4f       	sbci	r21, 0xFF	; 255
     206:	47 32       	cpi	r20, 0x27	; 39
     208:	51 05       	cpc	r21, r1
     20a:	61 f0       	breq	.+24     	; 0x224 <initMap+0xe4>
     20c:	46 9f       	mul	r20, r22
     20e:	f0 01       	movw	r30, r0
     210:	47 9f       	mul	r20, r23
     212:	f0 0d       	add	r31, r0
     214:	56 9f       	mul	r21, r22
     216:	f0 0d       	add	r31, r0
     218:	11 24       	eor	r1, r1
     21a:	e4 58       	subi	r30, 0x84	; 132
     21c:	fb 4f       	sbci	r31, 0xFB	; 251
     21e:	29 e1       	ldi	r18, 0x19	; 25
     220:	30 e0       	ldi	r19, 0x00	; 0
     222:	dc cf       	rjmp	.-72     	; 0x1dc <initMap+0x9c>
		for (int j = 25; j < 39; j++)
			if (abs(i-j) == 1)
				map[i][j] = 1;
	//Manually connecting nodes that are connected in the map
	//Replace it with soft code if you ever find a method
	map[35][42] = map[42][35] = 1;
     224:	81 e0       	ldi	r24, 0x01	; 1
     226:	90 e0       	ldi	r25, 0x00	; 0
     228:	90 93 a5 14 	sts	0x14A5, r25
     22c:	80 93 a4 14 	sts	0x14A4, r24
     230:	90 93 05 12 	sts	0x1205, r25
     234:	80 93 04 12 	sts	0x1204, r24
	map[42][41] = map[41][42] = 1;
     238:	90 93 51 14 	sts	0x1451, r25
     23c:	80 93 50 14 	sts	0x1450, r24
     240:	90 93 b1 14 	sts	0x14B1, r25
     244:	80 93 b0 14 	sts	0x14B0, r24
	map[41][32] = map[32][41] = 1;
     248:	90 93 dd 10 	sts	0x10DD, r25
     24c:	80 93 dc 10 	sts	0x10DC, r24
     250:	90 93 3d 14 	sts	0x143D, r25
     254:	80 93 3c 14 	sts	0x143C, r24
	map[32][48] = map[48][32] = 1;
     258:	90 93 eb 16 	sts	0x16EB, r25
     25c:	80 93 ea 16 	sts	0x16EA, r24
     260:	90 93 eb 10 	sts	0x10EB, r25
     264:	80 93 ea 10 	sts	0x10EA, r24
	map[47][31] = map[31][47] = 1;
     268:	90 93 87 10 	sts	0x1087, r25
     26c:	80 93 86 10 	sts	0x1086, r24
     270:	90 93 87 16 	sts	0x1687, r25
     274:	80 93 86 16 	sts	0x1686, r24
	map[31][40] = map[40][31] = 1;
     278:	90 93 d9 13 	sts	0x13D9, r25
     27c:	80 93 d8 13 	sts	0x13D8, r24
     280:	90 93 79 10 	sts	0x1079, r25
     284:	80 93 78 10 	sts	0x1078, r24
	map[40][39] = map[39][40] = 1;
     288:	90 93 89 13 	sts	0x1389, r25
     28c:	80 93 88 13 	sts	0x1388, r24
     290:	90 93 e9 13 	sts	0x13E9, r25
     294:	80 93 e8 13 	sts	0x13E8, r24
	map[39][28] = map[28][39] = 1;
     298:	90 93 51 0f 	sts	0x0F51, r25
     29c:	80 93 50 0f 	sts	0x0F50, r24
     2a0:	90 93 71 13 	sts	0x1371, r25
     2a4:	80 93 70 13 	sts	0x1370, r24
	map[28][46] = map[46][28] = 1;
     2a8:	90 93 1f 16 	sts	0x161F, r25
     2ac:	80 93 1e 16 	sts	0x161E, r24
     2b0:	90 93 5f 0f 	sts	0x0F5F, r25
     2b4:	80 93 5e 0f 	sts	0x0F5E, r24
	map[45][27] = map[27][45] = 1;
     2b8:	90 93 fb 0e 	sts	0x0EFB, r25
     2bc:	80 93 fa 0e 	sts	0x0EFA, r24
     2c0:	90 93 bb 15 	sts	0x15BB, r25
     2c4:	80 93 ba 15 	sts	0x15BA, r24
	map[27][38] = map[38][27] = 1;
     2c8:	90 93 0d 13 	sts	0x130D, r25
     2cc:	80 93 0c 13 	sts	0x130C, r24
     2d0:	90 93 ed 0e 	sts	0x0EED, r25
     2d4:	80 93 ec 0e 	sts	0x0EEC, r24
	map[36][25] = map[25][36] = 1;
     2d8:	90 93 25 0e 	sts	0x0E25, r25
     2dc:	80 93 24 0e 	sts	0x0E24, r24
     2e0:	90 93 45 12 	sts	0x1245, r25
     2e4:	80 93 44 12 	sts	0x1244, r24
	map[36][44] = map[44][36] = 1;
     2e8:	90 93 6b 15 	sts	0x156B, r25
     2ec:	80 93 6a 15 	sts	0x156A, r24
     2f0:	90 93 6b 12 	sts	0x126B, r25
     2f4:	80 93 6a 12 	sts	0x126A, r24
	map[43][35] = map[35][43] = 1;
     2f8:	90 93 07 12 	sts	0x1207, r25
     2fc:	80 93 06 12 	sts	0x1206, r24
     300:	90 93 07 15 	sts	0x1507, r25
     304:	80 93 06 15 	sts	0x1506, r24
	map[24][1]  = map[1][24]  = 1;
     308:	90 93 dd 04 	sts	0x04DD, r25
     30c:	80 93 dc 04 	sts	0x04DC, r24
     310:	90 93 7d 0d 	sts	0x0D7D, r25
     314:	80 93 7c 0d 	sts	0x0D7C, r24
	map[23][44] = map[44][23] = 1;
     318:	90 93 51 15 	sts	0x1551, r25
     31c:	80 93 50 15 	sts	0x1550, r24
     320:	90 93 71 0d 	sts	0x0D71, r25
     324:	80 93 70 0d 	sts	0x0D70, r24
	map[23][43] = map[43][23] = 1;
     328:	90 93 ef 14 	sts	0x14EF, r25
     32c:	80 93 ee 14 	sts	0x14EE, r24
     330:	90 93 6f 0d 	sts	0x0D6F, r25
     334:	80 93 6e 0d 	sts	0x0D6E, r24
	map[19][34] = map[34][19] = 1;
     338:	90 93 75 11 	sts	0x1175, r25
     33c:	80 93 74 11 	sts	0x1174, r24
     340:	90 93 d5 0b 	sts	0x0BD5, r25
     344:	80 93 d4 0b 	sts	0x0BD4, r24
	map[19][33] = map[33][19] = 1;
     348:	90 93 13 11 	sts	0x1113, r25
     34c:	80 93 12 11 	sts	0x1112, r24
     350:	90 93 d3 0b 	sts	0x0BD3, r25
     354:	80 93 d2 0b 	sts	0x0BD2, r24
	map[15][48] = map[48][15] = 1;
     358:	90 93 c9 16 	sts	0x16C9, r25
     35c:	80 93 c8 16 	sts	0x16C8, r24
     360:	90 93 69 0a 	sts	0x0A69, r25
     364:	80 93 68 0a 	sts	0x0A68, r24
	map[15][47] = map[47][15] = 1;
     368:	90 93 67 16 	sts	0x1667, r25
     36c:	80 93 66 16 	sts	0x1666, r24
     370:	90 93 67 0a 	sts	0x0A67, r25
     374:	80 93 66 0a 	sts	0x0A66, r24
	map[11][30] = map[30][11] = 1;
     378:	90 93 dd 0f 	sts	0x0FDD, r25
     37c:	80 93 dc 0f 	sts	0x0FDC, r24
     380:	90 93 bd 08 	sts	0x08BD, r25
     384:	80 93 bc 08 	sts	0x08BC, r24
	map[11][29] = map[29][11] = 1;
     388:	90 93 7b 0f 	sts	0x0F7B, r25
     38c:	80 93 7a 0f 	sts	0x0F7A, r24
     390:	90 93 bb 08 	sts	0x08BB, r25
     394:	80 93 ba 08 	sts	0x08BA, r24
	map[7][46]  = map[46][7]  = 1;
     398:	90 93 f5 15 	sts	0x15F5, r25
     39c:	80 93 f4 15 	sts	0x15F4, r24
     3a0:	90 93 55 07 	sts	0x0755, r25
     3a4:	80 93 54 07 	sts	0x0754, r24
	map[7][45]  = map[45][7]  = 1;
     3a8:	90 93 93 15 	sts	0x1593, r25
     3ac:	80 93 92 15 	sts	0x1592, r24
     3b0:	90 93 53 07 	sts	0x0753, r25
     3b4:	80 93 52 07 	sts	0x0752, r24
	map[3][26]  = map[26][3]  = 1;
     3b8:	90 93 45 0e 	sts	0x0E45, r25
     3bc:	80 93 44 0e 	sts	0x0E44, r24
     3c0:	90 93 a5 05 	sts	0x05A5, r25
     3c4:	80 93 a4 05 	sts	0x05A4, r24
	map[3][25]  = map[25][3]  = 1;
     3c8:	90 93 e3 0d 	sts	0x0DE3, r25
     3cc:	80 93 e2 0d 	sts	0x0DE2, r24
     3d0:	90 93 a3 05 	sts	0x05A3, r25
     3d4:	80 93 a2 05 	sts	0x05A2, r24
	map[35][36] = map[36][35] = 1;
     3d8:	90 93 59 12 	sts	0x1259, r25
     3dc:	80 93 58 12 	sts	0x1258, r24
     3e0:	90 93 f9 11 	sts	0x11F9, r25
     3e4:	80 93 f8 11 	sts	0x11F8, r24
	map[11][12] = map[12][11] = 1;
     3e8:	90 93 f9 08 	sts	0x08F9, r25
     3ec:	80 93 f8 08 	sts	0x08F8, r24
     3f0:	90 93 99 08 	sts	0x0899, r25
     3f4:	80 93 98 08 	sts	0x0898, r24
     3f8:	e2 e1       	ldi	r30, 0x12	; 18
     3fa:	f7 e1       	ldi	r31, 0x17	; 23
	for (int i = 1; i < 25; i++)
		for (int j = 0; j < 2; j++)
			map_link[i][j] = (j == 0 ? i : -1);
     3fc:	2f ef       	ldi	r18, 0xFF	; 255
     3fe:	3f ef       	ldi	r19, 0xFF	; 255
     400:	91 83       	std	Z+1, r25	; 0x01
     402:	80 83       	st	Z, r24
     404:	33 83       	std	Z+3, r19	; 0x03
     406:	22 83       	std	Z+2, r18	; 0x02
	map[7][45]  = map[45][7]  = 1;
	map[3][26]  = map[26][3]  = 1;
	map[3][25]  = map[25][3]  = 1;
	map[35][36] = map[36][35] = 1;
	map[11][12] = map[12][11] = 1;
	for (int i = 1; i < 25; i++)
     408:	01 96       	adiw	r24, 0x01	; 1
     40a:	34 96       	adiw	r30, 0x04	; 4
     40c:	89 31       	cpi	r24, 0x19	; 25
     40e:	91 05       	cpc	r25, r1
     410:	b9 f7       	brne	.-18     	; 0x400 <initMap+0x2c0>
		for (int j = 0; j < 2; j++)
			map_link[i][j] = (j == 0 ? i : -1);
	//Manually linking nodes to notes
	//Replace hard code with a better method if and when available
	map_link[25][0] = 1;
     412:	81 e0       	ldi	r24, 0x01	; 1
     414:	90 e0       	ldi	r25, 0x00	; 0
     416:	90 93 73 17 	sts	0x1773, r25
     41a:	80 93 72 17 	sts	0x1772, r24
	map_link[27][0] = 5;
     41e:	85 e0       	ldi	r24, 0x05	; 5
     420:	90 e0       	ldi	r25, 0x00	; 0
     422:	90 93 7b 17 	sts	0x177B, r25
     426:	80 93 7a 17 	sts	0x177A, r24
	map_link[28][0] = 9;
     42a:	89 e0       	ldi	r24, 0x09	; 9
     42c:	90 e0       	ldi	r25, 0x00	; 0
     42e:	90 93 7f 17 	sts	0x177F, r25
     432:	80 93 7e 17 	sts	0x177E, r24
	map_link[30][0] = 13;
     436:	8d e0       	ldi	r24, 0x0D	; 13
     438:	90 e0       	ldi	r25, 0x00	; 0
     43a:	90 93 87 17 	sts	0x1787, r25
     43e:	80 93 86 17 	sts	0x1786, r24
	map_link[31][0] = 17;
     442:	81 e1       	ldi	r24, 0x11	; 17
     444:	90 e0       	ldi	r25, 0x00	; 0
     446:	90 93 8b 17 	sts	0x178B, r25
     44a:	80 93 8a 17 	sts	0x178A, r24
	map_link[33][0] = 21;
     44e:	85 e1       	ldi	r24, 0x15	; 21
     450:	90 e0       	ldi	r25, 0x00	; 0
     452:	90 93 93 17 	sts	0x1793, r25
     456:	80 93 92 17 	sts	0x1792, r24
	map_link[26][0] = 37;
     45a:	85 e2       	ldi	r24, 0x25	; 37
     45c:	90 e0       	ldi	r25, 0x00	; 0
     45e:	90 93 77 17 	sts	0x1777, r25
     462:	80 93 76 17 	sts	0x1776, r24
	map_link[26][1] = 38;
     466:	86 e2       	ldi	r24, 0x26	; 38
     468:	90 e0       	ldi	r25, 0x00	; 0
     46a:	90 93 79 17 	sts	0x1779, r25
     46e:	80 93 78 17 	sts	0x1778, r24
	map_link[29][0] = 39;
     472:	87 e2       	ldi	r24, 0x27	; 39
     474:	90 e0       	ldi	r25, 0x00	; 0
     476:	90 93 83 17 	sts	0x1783, r25
     47a:	80 93 82 17 	sts	0x1782, r24
	map_link[29][1] = 40;
     47e:	88 e2       	ldi	r24, 0x28	; 40
     480:	90 e0       	ldi	r25, 0x00	; 0
     482:	90 93 85 17 	sts	0x1785, r25
     486:	80 93 84 17 	sts	0x1784, r24
	map_link[32][0] = 41;
     48a:	89 e2       	ldi	r24, 0x29	; 41
     48c:	90 e0       	ldi	r25, 0x00	; 0
     48e:	90 93 8f 17 	sts	0x178F, r25
     492:	80 93 8e 17 	sts	0x178E, r24
	map_link[32][1] = 42;
     496:	8a e2       	ldi	r24, 0x2A	; 42
     498:	90 e0       	ldi	r25, 0x00	; 0
     49a:	90 93 91 17 	sts	0x1791, r25
     49e:	80 93 90 17 	sts	0x1790, r24
     4a2:	c0 e0       	ldi	r28, 0x00	; 0
     4a4:	d9 e1       	ldi	r29, 0x19	; 25
     4a6:	e4 e6       	ldi	r30, 0x64	; 100
     4a8:	f9 e1       	ldi	r31, 0x19	; 25
     4aa:	22 ee       	ldi	r18, 0xE2	; 226
     4ac:	3f ef       	ldi	r19, 0xFF	; 255
	
	//Storing absolute angle of every point.
	int sangle = -30;
	for (int i = 2; i < 23; i=i+2)
	{
		map_angle[i][i+1] = sangle;
     4ae:	c0 56       	subi	r28, 0x60	; 96
     4b0:	d0 40       	sbci	r29, 0x00	; 0
     4b2:	39 83       	std	Y+1, r19	; 0x01
     4b4:	28 83       	st	Y, r18
     4b6:	c0 5a       	subi	r28, 0xA0	; 160
     4b8:	df 4f       	sbci	r29, 0xFF	; 255
		map_angle[i+1][i+2] = sangle;
     4ba:	3d 83       	std	Y+5, r19	; 0x05
     4bc:	2c 83       	std	Y+4, r18	; 0x04
		if (sangle < 0)
     4be:	37 ff       	sbrs	r19, 7
     4c0:	04 c0       	rjmp	.+8      	; 0x4ca <initMap+0x38a>
		{
			map_angle[i+1][i] = sangle + 180;
     4c2:	c9 01       	movw	r24, r18
     4c4:	8c 54       	subi	r24, 0x4C	; 76
     4c6:	9f 4f       	sbci	r25, 0xFF	; 255
     4c8:	06 c0       	rjmp	.+12     	; 0x4d6 <initMap+0x396>
			map_angle[i+2][i+1] = sangle + 180;
		}
		if (sangle > 0)
     4ca:	12 16       	cp	r1, r18
     4cc:	13 06       	cpc	r1, r19
     4ce:	3c f4       	brge	.+14     	; 0x4de <initMap+0x39e>
		{
			map_angle[i+1][i] = sangle - 180;
     4d0:	c9 01       	movw	r24, r18
     4d2:	84 5b       	subi	r24, 0xB4	; 180
     4d4:	90 40       	sbci	r25, 0x00	; 0
     4d6:	99 83       	std	Y+1, r25	; 0x01
     4d8:	88 83       	st	Y, r24
			map_angle[i+2][i+1] = sangle - 180;
     4da:	91 83       	std	Z+1, r25	; 0x01
     4dc:	80 83       	st	Z, r24
		}
		sangle -= 30;
     4de:	2e 51       	subi	r18, 0x1E	; 30
     4e0:	30 40       	sbci	r19, 0x00	; 0
		if (sangle < -180)
     4e2:	8f ef       	ldi	r24, 0xFF	; 255
     4e4:	2c 34       	cpi	r18, 0x4C	; 76
     4e6:	38 07       	cpc	r19, r24
     4e8:	14 f4       	brge	.+4      	; 0x4ee <initMap+0x3ae>
     4ea:	26 e9       	ldi	r18, 0x96	; 150
     4ec:	30 e0       	ldi	r19, 0x00	; 0
     4ee:	c8 53       	subi	r28, 0x38	; 56
     4f0:	df 4f       	sbci	r29, 0xFF	; 255
     4f2:	e8 53       	subi	r30, 0x38	; 56
     4f4:	ff 4f       	sbci	r31, 0xFF	; 255
	map_link[32][0] = 41;
	map_link[32][1] = 42;
	
	//Storing absolute angle of every point.
	int sangle = -30;
	for (int i = 2; i < 23; i=i+2)
     4f6:	81 e2       	ldi	r24, 0x21	; 33
     4f8:	c8 39       	cpi	r28, 0x98	; 152
     4fa:	d8 07       	cpc	r29, r24
     4fc:	c1 f6       	brne	.-80     	; 0x4ae <initMap+0x36e>
		if (sangle < -180)
		{
			sangle = 150;
		}
	}
	map_angle[1][2] = 0;
     4fe:	10 92 3d 18 	sts	0x183D, r1
     502:	10 92 3c 18 	sts	0x183C, r1
	map_angle[2][1] = 180;
     506:	84 eb       	ldi	r24, 0xB4	; 180
     508:	90 e0       	ldi	r25, 0x00	; 0
     50a:	90 93 9d 18 	sts	0x189D, r25
     50e:	80 93 9c 18 	sts	0x189C, r24
	map_angle[1][24] = 180;
     512:	90 93 69 18 	sts	0x1869, r25
     516:	80 93 68 18 	sts	0x1868, r24
	map_angle[24][1] = 0;
     51a:	10 92 09 21 	sts	0x2109, r1
     51e:	10 92 08 21 	sts	0x2108, r1

	map_angle[3][25]  = -150;
     522:	6a e6       	ldi	r22, 0x6A	; 106
     524:	7f ef       	ldi	r23, 0xFF	; 255
     526:	70 93 2f 19 	sts	0x192F, r23
     52a:	60 93 2e 19 	sts	0x192E, r22
    map_angle[25][3]  = 30;
     52e:	4e e1       	ldi	r20, 0x1E	; 30
     530:	50 e0       	ldi	r21, 0x00	; 0
     532:	50 93 6f 21 	sts	0x216F, r21
     536:	40 93 6e 21 	sts	0x216E, r20
	map_angle[3][26]  = -90;
     53a:	a6 ea       	ldi	r26, 0xA6	; 166
     53c:	bf ef       	ldi	r27, 0xFF	; 255
     53e:	b0 93 31 19 	sts	0x1931, r27
     542:	a0 93 30 19 	sts	0x1930, r26
	map_angle[26][3]  = 90;
     546:	ea e5       	ldi	r30, 0x5A	; 90
     548:	f0 e0       	ldi	r31, 0x00	; 0
     54a:	f9 af       	std	Y+57, r31	; 0x39
     54c:	e8 af       	std	Y+56, r30	; 0x38
	map_angle[7][45]  = 150;
     54e:	26 e9       	ldi	r18, 0x96	; 150
     550:	30 e0       	ldi	r19, 0x00	; 0
     552:	30 93 df 1a 	sts	0x1ADF, r19
     556:	20 93 de 1a 	sts	0x1ADE, r18
	map_angle[45][7]  = -30;
     55a:	82 ee       	ldi	r24, 0xE2	; 226
     55c:	9f ef       	ldi	r25, 0xFF	; 255
     55e:	90 93 1f 29 	sts	0x291F, r25
     562:	80 93 1e 29 	sts	0x291E, r24
	map_angle[7][46]  = -150;
     566:	70 93 e1 1a 	sts	0x1AE1, r23
     56a:	60 93 e0 1a 	sts	0x1AE0, r22
	map_angle[46][7]  = 30;
     56e:	50 93 81 29 	sts	0x2981, r21
     572:	40 93 80 29 	sts	0x2980, r20
	map_angle[11][29] = 90;
     576:	f0 93 47 1c 	sts	0x1C47, r31
     57a:	e0 93 46 1c 	sts	0x1C46, r30
	map_angle[29][11] = -90;
     57e:	b0 93 07 23 	sts	0x2307, r27
     582:	a0 93 06 23 	sts	0x2306, r26
	map_angle[11][30] = 150;
     586:	30 93 49 1c 	sts	0x1C49, r19
     58a:	20 93 48 1c 	sts	0x1C48, r18
	map_angle[30][11] = -30;
     58e:	90 93 69 23 	sts	0x2369, r25
     592:	80 93 68 23 	sts	0x2368, r24
	map_angle[15][47] = 30;
     596:	50 93 f3 1d 	sts	0x1DF3, r21
     59a:	40 93 f2 1d 	sts	0x1DF2, r20
	map_angle[47][15] = -150;
     59e:	70 93 f3 29 	sts	0x29F3, r23
     5a2:	60 93 f2 29 	sts	0x29F2, r22
	map_angle[15][48] = 90;
     5a6:	f0 93 f5 1d 	sts	0x1DF5, r31
     5aa:	e0 93 f4 1d 	sts	0x1DF4, r30
	map_angle[48][15] = -90;
     5ae:	b0 93 55 2a 	sts	0x2A55, r27
     5b2:	a0 93 54 2a 	sts	0x2A54, r26
	map_angle[19][33] = -30;
     5b6:	90 93 5f 1f 	sts	0x1F5F, r25
     5ba:	80 93 5e 1f 	sts	0x1F5E, r24
	map_angle[33][19] = 150;
     5be:	30 93 9f 24 	sts	0x249F, r19
     5c2:	20 93 9e 24 	sts	0x249E, r18
	map_angle[19][34] = 30;
     5c6:	50 93 61 1f 	sts	0x1F61, r21
     5ca:	40 93 60 1f 	sts	0x1F60, r20
	map_angle[34][19] = -150;
     5ce:	70 93 01 25 	sts	0x2501, r23
     5d2:	60 93 00 25 	sts	0x2500, r22
	map_angle[23][43] = -90;
     5d6:	b0 93 fb 20 	sts	0x20FB, r27
     5da:	a0 93 fa 20 	sts	0x20FA, r26
	map_angle[43][23] = 90;
     5de:	f0 93 7b 28 	sts	0x287B, r31
     5e2:	e0 93 7a 28 	sts	0x287A, r30
	map_angle[23][44] = -30;
     5e6:	90 93 fd 20 	sts	0x20FD, r25
     5ea:	80 93 fc 20 	sts	0x20FC, r24
	map_angle[44][23] = 150;
     5ee:	30 93 dd 28 	sts	0x28DD, r19
     5f2:	20 93 dc 28 	sts	0x28DC, r18
	map_angle[25][26] = -30;
     5f6:	9d 83       	std	Y+5, r25	; 0x05
     5f8:	8c 83       	std	Y+4, r24	; 0x04
	map_angle[26][25] = 150;
     5fa:	30 93 fd 21 	sts	0x21FD, r19
     5fe:	20 93 fc 21 	sts	0x21FC, r18
	map_angle[29][30] = -150;
     602:	70 93 2d 23 	sts	0x232D, r23
     606:	60 93 2c 23 	sts	0x232C, r22
	map_angle[30][29] = 30;
     60a:	50 93 8d 23 	sts	0x238D, r21
     60e:	40 93 8c 23 	sts	0x238C, r20
	map_angle[35][43] = 90;
     612:	f0 93 93 25 	sts	0x2593, r31
     616:	e0 93 92 25 	sts	0x2592, r30
	map_angle[43][35] = -90;
     61a:	b0 93 93 28 	sts	0x2893, r27
     61e:	a0 93 92 28 	sts	0x2892, r26
	map_angle[36][44] = 150;
     622:	30 93 f7 25 	sts	0x25F7, r19
     626:	20 93 f6 25 	sts	0x25F6, r18
	map_angle[44][36] = -30;
     62a:	90 93 f7 28 	sts	0x28F7, r25
     62e:	80 93 f6 28 	sts	0x28F6, r24
	map_angle[27][45] = -30;
     632:	90 93 87 22 	sts	0x2287, r25
     636:	80 93 86 22 	sts	0x2286, r24
	map_angle[45][27] = 150;
     63a:	30 93 47 29 	sts	0x2947, r19
     63e:	20 93 46 29 	sts	0x2946, r18
	map_angle[28][46] = 30;
     642:	50 93 eb 22 	sts	0x22EB, r21
     646:	40 93 ea 22 	sts	0x22EA, r20
	map_angle[46][28] = -150;
     64a:	70 93 ab 29 	sts	0x29AB, r23
     64e:	60 93 aa 29 	sts	0x29AA, r22
	map_angle[31][47] = -150;
     652:	70 93 13 24 	sts	0x2413, r23
     656:	60 93 12 24 	sts	0x2412, r22
	map_angle[47][31] = 30;
     65a:	50 93 13 2a 	sts	0x2A13, r21
     65e:	40 93 12 2a 	sts	0x2A12, r20
	map_angle[32][48] = -90;
     662:	b0 93 77 24 	sts	0x2477, r27
     666:	a0 93 76 24 	sts	0x2476, r26
	map_angle[48][32] = 90;
     66a:	f0 93 77 2a 	sts	0x2A77, r31
     66e:	e0 93 76 2a 	sts	0x2A76, r30
	map_angle[27][38] = -150;
     672:	70 93 79 22 	sts	0x2279, r23
     676:	60 93 78 22 	sts	0x2278, r22
	map_angle[38][27] = 30;
     67a:	50 93 99 26 	sts	0x2699, r21
     67e:	40 93 98 26 	sts	0x2698, r20
	map_angle[28][39] = 150;
     682:	30 93 dd 22 	sts	0x22DD, r19
     686:	20 93 dc 22 	sts	0x22DC, r18
	map_angle[39][28] = -30;
     68a:	90 93 fd 26 	sts	0x26FD, r25
     68e:	80 93 fc 26 	sts	0x26FC, r24
	map_angle[31][40] = 90;
     692:	f0 93 05 24 	sts	0x2405, r31
     696:	e0 93 04 24 	sts	0x2404, r30
	map_angle[40][31] = -90;
     69a:	b0 93 65 27 	sts	0x2765, r27
     69e:	a0 93 64 27 	sts	0x2764, r26
	map_angle[32][41] = 30;
     6a2:	50 93 69 24 	sts	0x2469, r21
     6a6:	40 93 68 24 	sts	0x2468, r20
	map_angle[41][32] = -150;
     6aa:	70 93 c9 27 	sts	0x27C9, r23
     6ae:	60 93 c8 27 	sts	0x27C8, r22
	map_angle[35][42] = -30;
     6b2:	90 93 91 25 	sts	0x2591, r25
     6b6:	80 93 90 25 	sts	0x2590, r24
	map_angle[42][35] = 150;
     6ba:	30 93 31 28 	sts	0x2831, r19
     6be:	20 93 30 28 	sts	0x2830, r18
	map_angle[36][37] = -90;
     6c2:	b0 93 e9 25 	sts	0x25E9, r27
     6c6:	a0 93 e8 25 	sts	0x25E8, r26
	map_angle[37][36] = 90;
     6ca:	f0 93 49 26 	sts	0x2649, r31
     6ce:	e0 93 48 26 	sts	0x2648, r30
	map_angle[39][40] = -150;
     6d2:	70 93 15 27 	sts	0x2715, r23
     6d6:	60 93 14 27 	sts	0x2714, r22
	map_angle[40][39] = 30;
     6da:	50 93 75 27 	sts	0x2775, r21
     6de:	40 93 74 27 	sts	0x2774, r20
	map_angle[37][38] = 150;
     6e2:	30 93 4d 26 	sts	0x264D, r19
     6e6:	20 93 4c 26 	sts	0x264C, r18
	map_angle[38][37] = -30;
     6ea:	90 93 ad 26 	sts	0x26AD, r25
     6ee:	80 93 ac 26 	sts	0x26AC, r24
	map_angle[41][42] = 90;
     6f2:	f0 93 dd 27 	sts	0x27DD, r31
     6f6:	e0 93 dc 27 	sts	0x27DC, r30
	map_angle[42][41] = -90;
     6fa:	b0 93 3d 28 	sts	0x283D, r27
     6fe:	a0 93 3c 28 	sts	0x283C, r26
	return 0;
}
     702:	80 e0       	ldi	r24, 0x00	; 0
     704:	90 e0       	ldi	r25, 0x00	; 0
     706:	df 91       	pop	r29
     708:	cf 91       	pop	r28
     70a:	08 95       	ret

0000070c <fCostCalc>:
	*Input: gCost and hCost (heuristic)
	*Output: Single integer which is the fCost
	*Logic: Adds gCost and hCost to return the fCost.
	*Example Call: int fCost = fCostCalc (gCost, hCost);
*/
int fCostCalc (int gCost, int heuristic) {
     70c:	68 0f       	add	r22, r24
     70e:	79 1f       	adc	r23, r25
	return gCost + heuristic;
}
     710:	cb 01       	movw	r24, r22
     712:	08 95       	ret

00000714 <extractMin>:
	*Logic: Starts index of min at -1. It then checks for all the elements in
			the open list in one scan while also checking their cost and
			updating min in the process.
	*Example Call: int min = extractMin (openList, fCost, size);
*/
int extractMin (int list[], int cost[], int Size) {
     714:	ef 92       	push	r14
     716:	ff 92       	push	r15
     718:	0f 93       	push	r16
     71a:	1f 93       	push	r17
     71c:	cf 93       	push	r28
     71e:	df 93       	push	r29
     720:	8b 01       	movw	r16, r22
     722:	7a 01       	movw	r14, r20
     724:	bc 01       	movw	r22, r24
     726:	e8 01       	movw	r28, r16
     728:	af ef       	ldi	r26, 0xFF	; 255
     72a:	bf ef       	ldi	r27, 0xFF	; 255
     72c:	40 e0       	ldi	r20, 0x00	; 0
     72e:	50 e0       	ldi	r21, 0x00	; 0
     730:	1b c0       	rjmp	.+54     	; 0x768 <extractMin+0x54>
	//Think of initializing min
	int min = -1;	
	for (int i = 0; i < Size; i++) {
		if (list[i] != 0) {
     732:	fb 01       	movw	r30, r22
     734:	80 81       	ld	r24, Z
     736:	91 81       	ldd	r25, Z+1	; 0x01
     738:	89 2b       	or	r24, r25
     73a:	89 f0       	breq	.+34     	; 0x75e <extractMin+0x4a>
			if (min == -1) {
     73c:	ff ef       	ldi	r31, 0xFF	; 255
     73e:	af 3f       	cpi	r26, 0xFF	; 255
     740:	bf 07       	cpc	r27, r31
     742:	61 f0       	breq	.+24     	; 0x75c <extractMin+0x48>
				min = i;
				continue;
			}
			min = ((cost[min] < cost[i]) ? min : i);
     744:	fd 01       	movw	r30, r26
     746:	ee 0f       	add	r30, r30
     748:	ff 1f       	adc	r31, r31
     74a:	e0 0f       	add	r30, r16
     74c:	f1 1f       	adc	r31, r17
     74e:	20 81       	ld	r18, Z
     750:	31 81       	ldd	r19, Z+1	; 0x01
     752:	88 81       	ld	r24, Y
     754:	99 81       	ldd	r25, Y+1	; 0x01
     756:	28 17       	cp	r18, r24
     758:	39 07       	cpc	r19, r25
     75a:	0c f0       	brlt	.+2      	; 0x75e <extractMin+0x4a>
     75c:	da 01       	movw	r26, r20
	*Example Call: int min = extractMin (openList, fCost, size);
*/
int extractMin (int list[], int cost[], int Size) {
	//Think of initializing min
	int min = -1;	
	for (int i = 0; i < Size; i++) {
     75e:	4f 5f       	subi	r20, 0xFF	; 255
     760:	5f 4f       	sbci	r21, 0xFF	; 255
     762:	6e 5f       	subi	r22, 0xFE	; 254
     764:	7f 4f       	sbci	r23, 0xFF	; 255
     766:	22 96       	adiw	r28, 0x02	; 2
     768:	4e 15       	cp	r20, r14
     76a:	5f 05       	cpc	r21, r15
     76c:	14 f3       	brlt	.-60     	; 0x732 <extractMin+0x1e>
			}
			min = ((cost[min] < cost[i]) ? min : i);
		}
	}
	return min;
}
     76e:	cd 01       	movw	r24, r26
     770:	df 91       	pop	r29
     772:	cf 91       	pop	r28
     774:	1f 91       	pop	r17
     776:	0f 91       	pop	r16
     778:	ff 90       	pop	r15
     77a:	ef 90       	pop	r14
     77c:	08 95       	ret

0000077e <reverse>:
			index is strictly less than the right one, it swaps those. It then
			increases the left pointer while decreasing the right one.
	*Example Call: reverse (arr, size);
*/
void reverse (int *Rev, int Size) {
	int j = Size-1, i = 0, temp;
     77e:	61 50       	subi	r22, 0x01	; 1
     780:	70 40       	sbci	r23, 0x00	; 0
     782:	dc 01       	movw	r26, r24
     784:	fb 01       	movw	r30, r22
     786:	ee 0f       	add	r30, r30
     788:	ff 1f       	adc	r31, r31
     78a:	ea 0f       	add	r30, r26
     78c:	fb 1f       	adc	r31, r27
     78e:	40 e0       	ldi	r20, 0x00	; 0
     790:	50 e0       	ldi	r21, 0x00	; 0
     792:	0e c0       	rjmp	.+28     	; 0x7b0 <reverse+0x32>
	while(i < j) {
		temp = Rev[i];
     794:	2d 91       	ld	r18, X+
     796:	3c 91       	ld	r19, X
     798:	11 97       	sbiw	r26, 0x01	; 1
		Rev[i] = Rev[j];
     79a:	80 81       	ld	r24, Z
     79c:	91 81       	ldd	r25, Z+1	; 0x01
     79e:	8d 93       	st	X+, r24
     7a0:	9d 93       	st	X+, r25
		Rev[j] = temp;
     7a2:	31 83       	std	Z+1, r19	; 0x01
     7a4:	20 83       	st	Z, r18
		i++;
     7a6:	4f 5f       	subi	r20, 0xFF	; 255
     7a8:	5f 4f       	sbci	r21, 0xFF	; 255
		j--;
     7aa:	61 50       	subi	r22, 0x01	; 1
     7ac:	70 40       	sbci	r23, 0x00	; 0
     7ae:	32 97       	sbiw	r30, 0x02	; 2
			increases the left pointer while decreasing the right one.
	*Example Call: reverse (arr, size);
*/
void reverse (int *Rev, int Size) {
	int j = Size-1, i = 0, temp;
	while(i < j) {
     7b0:	46 17       	cp	r20, r22
     7b2:	57 07       	cpc	r21, r23
     7b4:	7c f3       	brlt	.-34     	; 0x794 <reverse+0x16>
		Rev[i] = Rev[j];
		Rev[j] = temp;
		i++;
		j--;
	}
}
     7b6:	08 95       	ret

000007b8 <adc_pin_config>:
*/

//ADC pin configuration
void adc_pin_config (void)
{
 DDRF = 0x00; 
     7b8:	10 ba       	out	0x10, r1	; 16
 PORTF = 0x00;
     7ba:	11 ba       	out	0x11, r1	; 17
 DDRK = 0x00;
     7bc:	10 92 07 01 	sts	0x0107, r1
 PORTK = 0x00;
     7c0:	10 92 08 01 	sts	0x0108, r1
}
     7c4:	08 95       	ret

000007c6 <motion_pin_config>:

//Function to configure ports to enable robot's motion
void motion_pin_config (void) 
{
 DDRA = DDRA | 0x0F;
     7c6:	81 b1       	in	r24, 0x01	; 1
     7c8:	8f 60       	ori	r24, 0x0F	; 15
     7ca:	81 b9       	out	0x01, r24	; 1
 PORTA = PORTA & 0xF0;
     7cc:	82 b1       	in	r24, 0x02	; 2
     7ce:	80 7f       	andi	r24, 0xF0	; 240
     7d0:	82 b9       	out	0x02, r24	; 2
 DDRL = DDRL | 0x18;   //Setting PL3 and PL4 pins as output for PWM generation
     7d2:	ea e0       	ldi	r30, 0x0A	; 10
     7d4:	f1 e0       	ldi	r31, 0x01	; 1
     7d6:	80 81       	ld	r24, Z
     7d8:	88 61       	ori	r24, 0x18	; 24
     7da:	80 83       	st	Z, r24
 PORTL = PORTL | 0x18; //PL3 and PL4 pins are for velocity control using PWM.
     7dc:	eb e0       	ldi	r30, 0x0B	; 11
     7de:	f1 e0       	ldi	r31, 0x01	; 1
     7e0:	80 81       	ld	r24, Z
     7e2:	88 61       	ori	r24, 0x18	; 24
     7e4:	80 83       	st	Z, r24
}
     7e6:	08 95       	ret

000007e8 <left_encoder_pin_config>:

void left_encoder_pin_config (void)
{
	DDRE  = DDRE & 0xEF;  //Set the direction of the PORTE 4 pin as input
     7e8:	6c 98       	cbi	0x0d, 4	; 13
	PORTE = PORTE | 0x10; //Enable internal pull-up for PORTE 4 pin
     7ea:	74 9a       	sbi	0x0e, 4	; 14
}
     7ec:	08 95       	ret

000007ee <right_encoder_pin_config>:

//Function to configure INT5 (PORTE 5) pin as input for the right position encoder
void right_encoder_pin_config (void)
{
	DDRE  = DDRE & 0xDF;  //Set the direction of the PORTE 4 pin as input
     7ee:	6d 98       	cbi	0x0d, 5	; 13
	PORTE = PORTE | 0x20; //Enable internal pull-up for PORTE 4 pin
     7f0:	75 9a       	sbi	0x0e, 5	; 14
}
     7f2:	08 95       	ret

000007f4 <port_init>:
 PORTC = PORTC & 0xF7;		//Setting PORTC 3 logic low to turnoff buzzer
}
//Function to configure LCD port
void lcd_port_config (void)
{
	DDRC = DDRC | 0xF7; //all the LCD pin's direction set as output
     7f4:	87 b1       	in	r24, 0x07	; 7
     7f6:	87 6f       	ori	r24, 0xF7	; 247
     7f8:	87 b9       	out	0x07, r24	; 7
	PORTC = PORTC & 0x80; // all the LCD pins are set to logic 0 except PORTC 7
     7fa:	88 b1       	in	r24, 0x08	; 8
     7fc:	80 78       	andi	r24, 0x80	; 128
     7fe:	88 b9       	out	0x08, r24	; 8
*/

//ADC pin configuration
void adc_pin_config (void)
{
 DDRF = 0x00; 
     800:	10 ba       	out	0x10, r1	; 16
 PORTF = 0x00;
     802:	11 ba       	out	0x11, r1	; 17
 DDRK = 0x00;
     804:	10 92 07 01 	sts	0x0107, r1
 PORTK = 0x00;
     808:	10 92 08 01 	sts	0x0108, r1
}

//Function to configure ports to enable robot's motion
void motion_pin_config (void) 
{
 DDRA = DDRA | 0x0F;
     80c:	81 b1       	in	r24, 0x01	; 1
     80e:	8f 60       	ori	r24, 0x0F	; 15
     810:	81 b9       	out	0x01, r24	; 1
 PORTA = PORTA & 0xF0;
     812:	82 b1       	in	r24, 0x02	; 2
     814:	80 7f       	andi	r24, 0xF0	; 240
     816:	82 b9       	out	0x02, r24	; 2
 DDRL = DDRL | 0x18;   //Setting PL3 and PL4 pins as output for PWM generation
     818:	ea e0       	ldi	r30, 0x0A	; 10
     81a:	f1 e0       	ldi	r31, 0x01	; 1
     81c:	80 81       	ld	r24, Z
     81e:	88 61       	ori	r24, 0x18	; 24
     820:	80 83       	st	Z, r24
 PORTL = PORTL | 0x18; //PL3 and PL4 pins are for velocity control using PWM.
     822:	eb e0       	ldi	r30, 0x0B	; 11
     824:	f1 e0       	ldi	r31, 0x01	; 1
     826:	80 81       	ld	r24, Z
     828:	88 61       	ori	r24, 0x18	; 24
     82a:	80 83       	st	Z, r24
	*Example Call: int *cost = BFS(source);
*/

void buzzer_pin_config (void)
{
 DDRC = DDRC | 0x08;		//Setting PORTC 3 as output
     82c:	3b 9a       	sbi	0x07, 3	; 7
 PORTC = PORTC & 0xF7;		//Setting PORTC 3 logic low to turnoff buzzer
     82e:	43 98       	cbi	0x08, 3	; 8
}

void left_encoder_pin_config (void)
{
	DDRE  = DDRE & 0xEF;  //Set the direction of the PORTE 4 pin as input
     830:	6c 98       	cbi	0x0d, 4	; 13
	PORTE = PORTE | 0x10; //Enable internal pull-up for PORTE 4 pin
     832:	74 9a       	sbi	0x0e, 4	; 14
}

//Function to configure INT5 (PORTE 5) pin as input for the right position encoder
void right_encoder_pin_config (void)
{
	DDRE  = DDRE & 0xDF;  //Set the direction of the PORTE 4 pin as input
     834:	6d 98       	cbi	0x0d, 5	; 13
	PORTE = PORTE | 0x20; //Enable internal pull-up for PORTE 4 pin
     836:	75 9a       	sbi	0x0e, 5	; 14
	adc_pin_config();
	motion_pin_config();	
	buzzer_pin_config();
	left_encoder_pin_config(); //left encoder pin config
	right_encoder_pin_config(); //right encoder pin config
}
     838:	08 95       	ret

0000083a <left_position_encoder_interrupt_init>:

void left_position_encoder_interrupt_init (void) //Interrupt 4 enable
{
	cli(); //Clears the global interrupt
     83a:	f8 94       	cli
	EICRB = EICRB | 0x02; // INT4 is set to trigger with falling edge
     83c:	ea e6       	ldi	r30, 0x6A	; 106
     83e:	f0 e0       	ldi	r31, 0x00	; 0
     840:	80 81       	ld	r24, Z
     842:	82 60       	ori	r24, 0x02	; 2
     844:	80 83       	st	Z, r24
	EIMSK = EIMSK | 0x10; // Enable Interrupt INT4 for left position encoder
     846:	ec 9a       	sbi	0x1d, 4	; 29
	sei();   // Enables the global interrupt
     848:	78 94       	sei
}
     84a:	08 95       	ret

0000084c <right_position_encoder_interrupt_init>:

void right_position_encoder_interrupt_init (void) //Interrupt 5 enable
{
	cli(); //Clears the global interrupt
     84c:	f8 94       	cli
	EICRB = EICRB | 0x08; // INT5 is set to trigger with falling edge
     84e:	ea e6       	ldi	r30, 0x6A	; 106
     850:	f0 e0       	ldi	r31, 0x00	; 0
     852:	80 81       	ld	r24, Z
     854:	88 60       	ori	r24, 0x08	; 8
     856:	80 83       	st	Z, r24
	EIMSK = EIMSK | 0x20; // Enable Interrupt INT5 for right position encoder
     858:	ed 9a       	sbi	0x1d, 5	; 29
	sei();   // Enables the global interrupt
     85a:	78 94       	sei
}
     85c:	08 95       	ret

0000085e <__vector_6>:

//ISR for right position encoder
ISR(INT5_vect)
{
     85e:	1f 92       	push	r1
     860:	0f 92       	push	r0
     862:	0f b6       	in	r0, 0x3f	; 63
     864:	0f 92       	push	r0
     866:	11 24       	eor	r1, r1
     868:	8f 93       	push	r24
     86a:	9f 93       	push	r25
     86c:	af 93       	push	r26
     86e:	bf 93       	push	r27
	ShaftCountRight++;  //increment right shaft position count
     870:	80 91 34 04 	lds	r24, 0x0434
     874:	90 91 35 04 	lds	r25, 0x0435
     878:	a0 91 36 04 	lds	r26, 0x0436
     87c:	b0 91 37 04 	lds	r27, 0x0437
     880:	01 96       	adiw	r24, 0x01	; 1
     882:	a1 1d       	adc	r26, r1
     884:	b1 1d       	adc	r27, r1
     886:	80 93 34 04 	sts	0x0434, r24
     88a:	90 93 35 04 	sts	0x0435, r25
     88e:	a0 93 36 04 	sts	0x0436, r26
     892:	b0 93 37 04 	sts	0x0437, r27
}
     896:	bf 91       	pop	r27
     898:	af 91       	pop	r26
     89a:	9f 91       	pop	r25
     89c:	8f 91       	pop	r24
     89e:	0f 90       	pop	r0
     8a0:	0f be       	out	0x3f, r0	; 63
     8a2:	0f 90       	pop	r0
     8a4:	1f 90       	pop	r1
     8a6:	18 95       	reti

000008a8 <__vector_5>:


//ISR for left position encoder
ISR(INT4_vect)
{
     8a8:	1f 92       	push	r1
     8aa:	0f 92       	push	r0
     8ac:	0f b6       	in	r0, 0x3f	; 63
     8ae:	0f 92       	push	r0
     8b0:	11 24       	eor	r1, r1
     8b2:	8f 93       	push	r24
     8b4:	9f 93       	push	r25
     8b6:	af 93       	push	r26
     8b8:	bf 93       	push	r27
	ShaftCountLeft++;  //increment left shaft position count
     8ba:	80 91 30 04 	lds	r24, 0x0430
     8be:	90 91 31 04 	lds	r25, 0x0431
     8c2:	a0 91 32 04 	lds	r26, 0x0432
     8c6:	b0 91 33 04 	lds	r27, 0x0433
     8ca:	01 96       	adiw	r24, 0x01	; 1
     8cc:	a1 1d       	adc	r26, r1
     8ce:	b1 1d       	adc	r27, r1
     8d0:	80 93 30 04 	sts	0x0430, r24
     8d4:	90 93 31 04 	sts	0x0431, r25
     8d8:	a0 93 32 04 	sts	0x0432, r26
     8dc:	b0 93 33 04 	sts	0x0433, r27
}
     8e0:	bf 91       	pop	r27
     8e2:	af 91       	pop	r26
     8e4:	9f 91       	pop	r25
     8e6:	8f 91       	pop	r24
     8e8:	0f 90       	pop	r0
     8ea:	0f be       	out	0x3f, r0	; 63
     8ec:	0f 90       	pop	r0
     8ee:	1f 90       	pop	r1
     8f0:	18 95       	reti

000008f2 <timer1_init>:

void timer1_init(void)
{
 TCCR1B = 0x00; //stop
     8f2:	e1 e8       	ldi	r30, 0x81	; 129
     8f4:	f0 e0       	ldi	r31, 0x00	; 0
     8f6:	10 82       	st	Z, r1
 TCNT1H = 0xFC; //Counter high value to which OCR1xH value is to be compared with
     8f8:	8c ef       	ldi	r24, 0xFC	; 252
     8fa:	80 93 85 00 	sts	0x0085, r24
 TCNT1L = 0x01;	//Counter low value to which OCR1xH value is to be compared with
     8fe:	81 e0       	ldi	r24, 0x01	; 1
     900:	80 93 84 00 	sts	0x0084, r24
 OCR1AH = 0x03;	//Output compare Register high value for servo 1
     904:	93 e0       	ldi	r25, 0x03	; 3
     906:	90 93 89 00 	sts	0x0089, r25
 OCR1AL = 0xFF;	//Output Compare Register low Value For servo 1
     90a:	8f ef       	ldi	r24, 0xFF	; 255
     90c:	80 93 88 00 	sts	0x0088, r24
 OCR1BH = 0x03;	//Output compare Register high value for servo 2
     910:	90 93 8b 00 	sts	0x008B, r25
 OCR1BL = 0xFF;	//Output Compare Register low Value For servo 2
     914:	80 93 8a 00 	sts	0x008A, r24
 OCR1CH = 0x03;	//Output compare Register high value for servo 3
     918:	90 93 8d 00 	sts	0x008D, r25
 OCR1CL = 0xFF;	//Output Compare Register low Value For servo 3
     91c:	80 93 8c 00 	sts	0x008C, r24
 ICR1H  = 0x03;	
     920:	90 93 87 00 	sts	0x0087, r25
 ICR1L  = 0xFF;
     924:	80 93 86 00 	sts	0x0086, r24
 TCCR1A = 0xAB; /*{COM1A1=1, COM1A0=0; COM1B1=1, COM1B0=0; COM1C1=1 COM1C0=0}
     928:	8b ea       	ldi	r24, 0xAB	; 171
     92a:	80 93 80 00 	sts	0x0080, r24
 					For Overriding normal port functionality to OCRnA outputs.
				  {WGM11=1, WGM10=1} Along With WGM12 in TCCR1B for Selecting FAST PWM Mode*/
 TCCR1C = 0x00;
     92e:	10 92 82 00 	sts	0x0082, r1
 TCCR1B = 0x0C; //WGM12=1; CS12=1, CS11=0, CS10=0 (Prescaler=256)
     932:	8c e0       	ldi	r24, 0x0C	; 12
     934:	80 83       	st	Z, r24
}
     936:	08 95       	ret

00000938 <timer5_init>:
// Prescale:256
// PWM 8bit fast, TOP=0x00FF
// Timer Frequency:225.000Hz
void timer5_init()
{
	TCCR5B = 0x00;	//Stop
     938:	e1 e2       	ldi	r30, 0x21	; 33
     93a:	f1 e0       	ldi	r31, 0x01	; 1
     93c:	10 82       	st	Z, r1
	TCNT5H = 0xFF;	//Counter higher 8-bit value to which OCR5xH value is compared with
     93e:	9f ef       	ldi	r25, 0xFF	; 255
     940:	90 93 25 01 	sts	0x0125, r25
	TCNT5L = 0x01;	//Counter lower 8-bit value to which OCR5xH value is compared with
     944:	81 e0       	ldi	r24, 0x01	; 1
     946:	80 93 24 01 	sts	0x0124, r24
	OCR5AH = 0x00;	//Output compare register high value for Left Motor
     94a:	10 92 29 01 	sts	0x0129, r1
	OCR5AL = 0xFF;	//Output compare register low value for Left Motor
     94e:	90 93 28 01 	sts	0x0128, r25
	OCR5BH = 0x00;	//Output compare register high value for Right Motor
     952:	10 92 2b 01 	sts	0x012B, r1
	OCR5BL = 0xFF;	//Output compare register low value for Right Motor
     956:	90 93 2a 01 	sts	0x012A, r25
	OCR5CH = 0x00;	//Output compare register high value for Motor C1
     95a:	10 92 2d 01 	sts	0x012D, r1
	OCR5CL = 0xFF;	//Output compare register low value for Motor C1
     95e:	90 93 2c 01 	sts	0x012C, r25
	TCCR5A = 0xA9;	/*{COM5A1=1, COM5A0=0; COM5B1=1, COM5B0=0; COM5C1=1 COM5C0=0}
     962:	89 ea       	ldi	r24, 0xA9	; 169
     964:	80 93 20 01 	sts	0x0120, r24
 					  For Overriding normal port functionality to OCRnA outputs.
				  	  {WGM51=0, WGM50=1} Along With WGM52 in TCCR5B for Selecting FAST PWM 8-bit Mode*/
	
	TCCR5B = 0x0B;	//WGM12=1; CS12=0, CS11=1, CS10=1 (Prescaler=64)
     968:	8b e0       	ldi	r24, 0x0B	; 11
     96a:	80 83       	st	Z, r24
}
     96c:	08 95       	ret

0000096e <adc_init>:

void adc_init()
{
	ADCSRA = 0x00;
     96e:	ea e7       	ldi	r30, 0x7A	; 122
     970:	f0 e0       	ldi	r31, 0x00	; 0
     972:	10 82       	st	Z, r1
	ADCSRB = 0x00;		//MUX5 = 0
     974:	10 92 7b 00 	sts	0x007B, r1
	ADMUX = 0x20;		//Vref=5V external --- ADLAR=1 --- MUX4:0 = 0000
     978:	80 e2       	ldi	r24, 0x20	; 32
     97a:	80 93 7c 00 	sts	0x007C, r24
	ACSR = 0x80;
     97e:	80 e8       	ldi	r24, 0x80	; 128
     980:	80 bf       	out	0x30, r24	; 48
	ADCSRA = 0x86;		//ADEN=1 --- ADIE=1 --- ADPS2:0 = 1 1 0
     982:	86 e8       	ldi	r24, 0x86	; 134
     984:	80 83       	st	Z, r24
}
     986:	08 95       	ret

00000988 <ADC_Conversion>:

//Function For ADC Conversion
unsigned char ADC_Conversion(unsigned char Ch) 
{
     988:	98 2f       	mov	r25, r24
	unsigned char a;
	if(Ch>7)
     98a:	88 30       	cpi	r24, 0x08	; 8
     98c:	18 f0       	brcs	.+6      	; 0x994 <ADC_Conversion+0xc>
	{
		ADCSRB = 0x08;
     98e:	88 e0       	ldi	r24, 0x08	; 8
     990:	80 93 7b 00 	sts	0x007B, r24
	}
	Ch = Ch & 0x07;  			
	ADMUX= 0x20| Ch;	   		
     994:	97 70       	andi	r25, 0x07	; 7
     996:	90 62       	ori	r25, 0x20	; 32
     998:	90 93 7c 00 	sts	0x007C, r25
	ADCSRA = ADCSRA | 0x40;		//Set start conversion bit
     99c:	80 91 7a 00 	lds	r24, 0x007A
     9a0:	80 64       	ori	r24, 0x40	; 64
     9a2:	80 93 7a 00 	sts	0x007A, r24
	while((ADCSRA&0x10)==0);	//Wait for conversion to complete
     9a6:	80 91 7a 00 	lds	r24, 0x007A
     9aa:	84 ff       	sbrs	r24, 4
     9ac:	fc cf       	rjmp	.-8      	; 0x9a6 <ADC_Conversion+0x1e>
	a=ADCH;
     9ae:	80 91 79 00 	lds	r24, 0x0079
	ADCSRA = ADCSRA|0x10; //clear ADIF (ADC Interrupt Flag) by writing 1 to it
     9b2:	90 91 7a 00 	lds	r25, 0x007A
     9b6:	90 61       	ori	r25, 0x10	; 16
     9b8:	90 93 7a 00 	sts	0x007A, r25
	ADCSRB = 0x00;
     9bc:	10 92 7b 00 	sts	0x007B, r1
	return a;
}
     9c0:	08 95       	ret

000009c2 <velocity>:
}

//Function for velocity control
void velocity (unsigned char left_motor, unsigned char right_motor)
{
	OCR5AL = (unsigned char)left_motor;
     9c2:	80 93 28 01 	sts	0x0128, r24
	OCR5BL = (unsigned char)right_motor;
     9c6:	60 93 2a 01 	sts	0x012A, r22
}
     9ca:	08 95       	ret

000009cc <motion_set>:
void motion_set (unsigned char Direction)
{
 unsigned char PortARestore = 0;

 Direction &= 0x0F; 		// removing upper nibbel for the protection
 PortARestore = PORTA; 		// reading the PORTA original status
     9cc:	92 b1       	in	r25, 0x02	; 2
 PortARestore &= 0xF0; 		// making lower direction nibbel to 0
     9ce:	90 7f       	andi	r25, 0xF0	; 240
 PortARestore |= Direction; // adding lower nibbel for forward command and restoring the PORTA status
     9d0:	8f 70       	andi	r24, 0x0F	; 15
     9d2:	89 2b       	or	r24, r25
 PORTA = PortARestore; 		// executing the command
     9d4:	82 b9       	out	0x02, r24	; 2
}
     9d6:	08 95       	ret

000009d8 <forward>:
void motion_set (unsigned char Direction)
{
 unsigned char PortARestore = 0;

 Direction &= 0x0F; 		// removing upper nibbel for the protection
 PortARestore = PORTA; 		// reading the PORTA original status
     9d8:	82 b1       	in	r24, 0x02	; 2
 PortARestore &= 0xF0; 		// making lower direction nibbel to 0
     9da:	80 7f       	andi	r24, 0xF0	; 240
 PortARestore |= Direction; // adding lower nibbel for forward command and restoring the PORTA status
     9dc:	86 60       	ori	r24, 0x06	; 6
 PORTA = PortARestore; 		// executing the command
     9de:	82 b9       	out	0x02, r24	; 2
}

void forward (void) 
{
  motion_set (0x06);
}
     9e0:	08 95       	ret

000009e2 <back>:
void motion_set (unsigned char Direction)
{
 unsigned char PortARestore = 0;

 Direction &= 0x0F; 		// removing upper nibbel for the protection
 PortARestore = PORTA; 		// reading the PORTA original status
     9e2:	82 b1       	in	r24, 0x02	; 2
 PortARestore &= 0xF0; 		// making lower direction nibbel to 0
     9e4:	80 7f       	andi	r24, 0xF0	; 240
 PortARestore |= Direction; // adding lower nibbel for forward command and restoring the PORTA status
     9e6:	89 60       	ori	r24, 0x09	; 9
 PORTA = PortARestore; 		// executing the command
     9e8:	82 b9       	out	0x02, r24	; 2
}

void back (void) //both wheels backward
{
  motion_set(0x09);
}
     9ea:	08 95       	ret

000009ec <left>:
void motion_set (unsigned char Direction)
{
 unsigned char PortARestore = 0;

 Direction &= 0x0F; 		// removing upper nibbel for the protection
 PortARestore = PORTA; 		// reading the PORTA original status
     9ec:	82 b1       	in	r24, 0x02	; 2
 PortARestore &= 0xF0; 		// making lower direction nibbel to 0
     9ee:	80 7f       	andi	r24, 0xF0	; 240
 PortARestore |= Direction; // adding lower nibbel for forward command and restoring the PORTA status
     9f0:	85 60       	ori	r24, 0x05	; 5
 PORTA = PortARestore; 		// executing the command
     9f2:	82 b9       	out	0x02, r24	; 2
}

void left (void) //Left wheel backward, Right wheel forward
{
  motion_set(0x05);
}
     9f4:	08 95       	ret

000009f6 <right>:
void motion_set (unsigned char Direction)
{
 unsigned char PortARestore = 0;

 Direction &= 0x0F; 		// removing upper nibbel for the protection
 PortARestore = PORTA; 		// reading the PORTA original status
     9f6:	82 b1       	in	r24, 0x02	; 2
 PortARestore &= 0xF0; 		// making lower direction nibbel to 0
     9f8:	80 7f       	andi	r24, 0xF0	; 240
 PortARestore |= Direction; // adding lower nibbel for forward command and restoring the PORTA status
     9fa:	8a 60       	ori	r24, 0x0A	; 10
 PORTA = PortARestore; 		// executing the command
     9fc:	82 b9       	out	0x02, r24	; 2
}

void right (void) //Left wheel forward, Right wheel backward
{
  motion_set(0x0A);
}
     9fe:	08 95       	ret

00000a00 <soft_left>:
void motion_set (unsigned char Direction)
{
 unsigned char PortARestore = 0;

 Direction &= 0x0F; 		// removing upper nibbel for the protection
 PortARestore = PORTA; 		// reading the PORTA original status
     a00:	82 b1       	in	r24, 0x02	; 2
 PortARestore &= 0xF0; 		// making lower direction nibbel to 0
     a02:	80 7f       	andi	r24, 0xF0	; 240
 PortARestore |= Direction; // adding lower nibbel for forward command and restoring the PORTA status
     a04:	84 60       	ori	r24, 0x04	; 4
 PORTA = PortARestore; 		// executing the command
     a06:	82 b9       	out	0x02, r24	; 2
}

void soft_left (void) //Left wheel stationary, Right wheel forward
{
 motion_set(0x04);
}
     a08:	08 95       	ret

00000a0a <soft_right>:
void motion_set (unsigned char Direction)
{
 unsigned char PortARestore = 0;

 Direction &= 0x0F; 		// removing upper nibbel for the protection
 PortARestore = PORTA; 		// reading the PORTA original status
     a0a:	82 b1       	in	r24, 0x02	; 2
 PortARestore &= 0xF0; 		// making lower direction nibbel to 0
     a0c:	80 7f       	andi	r24, 0xF0	; 240
 PortARestore |= Direction; // adding lower nibbel for forward command and restoring the PORTA status
     a0e:	82 60       	ori	r24, 0x02	; 2
 PORTA = PortARestore; 		// executing the command
     a10:	82 b9       	out	0x02, r24	; 2
}

void soft_right (void) //Left wheel forward, Right wheel is stationary
{
 motion_set(0x02);
}
     a12:	08 95       	ret

00000a14 <soft_left_2>:
void motion_set (unsigned char Direction)
{
 unsigned char PortARestore = 0;

 Direction &= 0x0F; 		// removing upper nibbel for the protection
 PortARestore = PORTA; 		// reading the PORTA original status
     a14:	82 b1       	in	r24, 0x02	; 2
 PortARestore &= 0xF0; 		// making lower direction nibbel to 0
     a16:	80 7f       	andi	r24, 0xF0	; 240
 PortARestore |= Direction; // adding lower nibbel for forward command and restoring the PORTA status
     a18:	81 60       	ori	r24, 0x01	; 1
 PORTA = PortARestore; 		// executing the command
     a1a:	82 b9       	out	0x02, r24	; 2
}

void soft_left_2 (void) //Left wheel backward, right wheel stationary
{
 motion_set(0x01);
}
     a1c:	08 95       	ret

00000a1e <soft_right_2>:
void motion_set (unsigned char Direction)
{
 unsigned char PortARestore = 0;

 Direction &= 0x0F; 		// removing upper nibbel for the protection
 PortARestore = PORTA; 		// reading the PORTA original status
     a1e:	82 b1       	in	r24, 0x02	; 2
 PortARestore &= 0xF0; 		// making lower direction nibbel to 0
     a20:	80 7f       	andi	r24, 0xF0	; 240
 PortARestore |= Direction; // adding lower nibbel for forward command and restoring the PORTA status
     a22:	88 60       	ori	r24, 0x08	; 8
 PORTA = PortARestore; 		// executing the command
     a24:	82 b9       	out	0x02, r24	; 2
}

void soft_right_2 (void) //Left wheel stationary, Right wheel backward
{
 motion_set(0x08);
}
     a26:	08 95       	ret

00000a28 <stop>:
void motion_set (unsigned char Direction)
{
 unsigned char PortARestore = 0;

 Direction &= 0x0F; 		// removing upper nibbel for the protection
 PortARestore = PORTA; 		// reading the PORTA original status
     a28:	82 b1       	in	r24, 0x02	; 2
 PortARestore &= 0xF0; 		// making lower direction nibbel to 0
     a2a:	80 7f       	andi	r24, 0xF0	; 240
 PortARestore |= Direction; // adding lower nibbel for forward command and restoring the PORTA status
 PORTA = PortARestore; 		// executing the command
     a2c:	82 b9       	out	0x02, r24	; 2
}

void stop (void)
{
  motion_set (0x00);
}
     a2e:	08 95       	ret

00000a30 <angle_rotate>:

//Function used for turning robot by specified degrees
void angle_rotate(unsigned int Degrees)
{
     a30:	ef 92       	push	r14
     a32:	ff 92       	push	r15
     a34:	0f 93       	push	r16
     a36:	1f 93       	push	r17
	float ReqdShaftCount = 0;
	unsigned long int ReqdShaftCountInt = 0;

	ReqdShaftCount = (float) Degrees/ 4.090; // division by resolution to get shaft count
	ReqdShaftCountInt = (unsigned int) ReqdShaftCount;
     a38:	a0 e0       	ldi	r26, 0x00	; 0
     a3a:	b0 e0       	ldi	r27, 0x00	; 0
     a3c:	bc 01       	movw	r22, r24
     a3e:	cd 01       	movw	r24, r26
     a40:	0e 94 89 13 	call	0x2712	; 0x2712 <__floatunsisf>
     a44:	28 e4       	ldi	r18, 0x48	; 72
     a46:	31 ee       	ldi	r19, 0xE1	; 225
     a48:	42 e8       	ldi	r20, 0x82	; 130
     a4a:	50 e4       	ldi	r21, 0x40	; 64
     a4c:	0e 94 59 12 	call	0x24b2	; 0x24b2 <__divsf3>
     a50:	0e 94 83 10 	call	0x2106	; 0x2106 <__fixunssfsi>
     a54:	7b 01       	movw	r14, r22
     a56:	00 e0       	ldi	r16, 0x00	; 0
     a58:	10 e0       	ldi	r17, 0x00	; 0
	ShaftCountRight = 0;
     a5a:	10 92 34 04 	sts	0x0434, r1
     a5e:	10 92 35 04 	sts	0x0435, r1
     a62:	10 92 36 04 	sts	0x0436, r1
     a66:	10 92 37 04 	sts	0x0437, r1
	ShaftCountLeft = 0;
     a6a:	10 92 30 04 	sts	0x0430, r1
     a6e:	10 92 31 04 	sts	0x0431, r1
     a72:	10 92 32 04 	sts	0x0432, r1
     a76:	10 92 33 04 	sts	0x0433, r1

	while (1)
	{
		if((ShaftCountRight >= ReqdShaftCountInt) | (ShaftCountLeft >= ReqdShaftCountInt))
     a7a:	80 91 34 04 	lds	r24, 0x0434
     a7e:	90 91 35 04 	lds	r25, 0x0435
     a82:	a0 91 36 04 	lds	r26, 0x0436
     a86:	b0 91 37 04 	lds	r27, 0x0437
     a8a:	20 91 30 04 	lds	r18, 0x0430
     a8e:	30 91 31 04 	lds	r19, 0x0431
     a92:	40 91 32 04 	lds	r20, 0x0432
     a96:	50 91 33 04 	lds	r21, 0x0433
     a9a:	8e 15       	cp	r24, r14
     a9c:	9f 05       	cpc	r25, r15
     a9e:	a0 07       	cpc	r26, r16
     aa0:	b1 07       	cpc	r27, r17
     aa2:	28 f4       	brcc	.+10     	; 0xaae <angle_rotate+0x7e>
     aa4:	2e 15       	cp	r18, r14
     aa6:	3f 05       	cpc	r19, r15
     aa8:	40 07       	cpc	r20, r16
     aaa:	51 07       	cpc	r21, r17
     aac:	30 f3       	brcs	.-52     	; 0xa7a <angle_rotate+0x4a>
void motion_set (unsigned char Direction)
{
 unsigned char PortARestore = 0;

 Direction &= 0x0F; 		// removing upper nibbel for the protection
 PortARestore = PORTA; 		// reading the PORTA original status
     aae:	82 b1       	in	r24, 0x02	; 2
 PortARestore &= 0xF0; 		// making lower direction nibbel to 0
     ab0:	80 7f       	andi	r24, 0xF0	; 240
 PortARestore |= Direction; // adding lower nibbel for forward command and restoring the PORTA status
 PORTA = PortARestore; 		// executing the command
     ab2:	82 b9       	out	0x02, r24	; 2
	{
		if((ShaftCountRight >= ReqdShaftCountInt) | (ShaftCountLeft >= ReqdShaftCountInt))
		break;
	}
	stop(); //Stop robot
}
     ab4:	1f 91       	pop	r17
     ab6:	0f 91       	pop	r16
     ab8:	ff 90       	pop	r15
     aba:	ef 90       	pop	r14
     abc:	08 95       	ret

00000abe <left_degrees>:
void motion_set (unsigned char Direction)
{
 unsigned char PortARestore = 0;

 Direction &= 0x0F; 		// removing upper nibbel for the protection
 PortARestore = PORTA; 		// reading the PORTA original status
     abe:	22 b1       	in	r18, 0x02	; 2
 PortARestore &= 0xF0; 		// making lower direction nibbel to 0
     ac0:	20 7f       	andi	r18, 0xF0	; 240
 PortARestore |= Direction; // adding lower nibbel for forward command and restoring the PORTA status
     ac2:	25 60       	ori	r18, 0x05	; 5
 PORTA = PortARestore; 		// executing the command
     ac4:	22 b9       	out	0x02, r18	; 2

void left_degrees(unsigned int Degrees)
{
	// 88 pulses for 360 degrees rotation 4.090 degrees per count
	left(); //Turn left
	angle_rotate(Degrees);
     ac6:	0e 94 18 05 	call	0xa30	; 0xa30 <angle_rotate>
}
     aca:	08 95       	ret

00000acc <right_degrees>:
void motion_set (unsigned char Direction)
{
 unsigned char PortARestore = 0;

 Direction &= 0x0F; 		// removing upper nibbel for the protection
 PortARestore = PORTA; 		// reading the PORTA original status
     acc:	22 b1       	in	r18, 0x02	; 2
 PortARestore &= 0xF0; 		// making lower direction nibbel to 0
     ace:	20 7f       	andi	r18, 0xF0	; 240
 PortARestore |= Direction; // adding lower nibbel for forward command and restoring the PORTA status
     ad0:	2a 60       	ori	r18, 0x0A	; 10
 PORTA = PortARestore; 		// executing the command
     ad2:	22 b9       	out	0x02, r18	; 2

void right_degrees(unsigned int Degrees)
{
	// 88 pulses for 360 degrees rotation 4.090 degrees per count
	right(); //Turn right
	angle_rotate(Degrees);
     ad4:	0e 94 18 05 	call	0xa30	; 0xa30 <angle_rotate>
}
     ad8:	08 95       	ret

00000ada <soft_left_degrees>:
void motion_set (unsigned char Direction)
{
 unsigned char PortARestore = 0;

 Direction &= 0x0F; 		// removing upper nibbel for the protection
 PortARestore = PORTA; 		// reading the PORTA original status
     ada:	22 b1       	in	r18, 0x02	; 2
 PortARestore &= 0xF0; 		// making lower direction nibbel to 0
     adc:	20 7f       	andi	r18, 0xF0	; 240
 PortARestore |= Direction; // adding lower nibbel for forward command and restoring the PORTA status
     ade:	24 60       	ori	r18, 0x04	; 4
 PORTA = PortARestore; 		// executing the command
     ae0:	22 b9       	out	0x02, r18	; 2
void soft_left_degrees(unsigned int Degrees)
{
	// 176 pulses for 360 degrees rotation 2.045 degrees per count
	soft_left(); //Turn soft left
	Degrees=Degrees*2;
	angle_rotate(Degrees);
     ae2:	88 0f       	add	r24, r24
     ae4:	99 1f       	adc	r25, r25
     ae6:	0e 94 18 05 	call	0xa30	; 0xa30 <angle_rotate>
}
     aea:	08 95       	ret

00000aec <soft_right_degrees>:
void motion_set (unsigned char Direction)
{
 unsigned char PortARestore = 0;

 Direction &= 0x0F; 		// removing upper nibbel for the protection
 PortARestore = PORTA; 		// reading the PORTA original status
     aec:	22 b1       	in	r18, 0x02	; 2
 PortARestore &= 0xF0; 		// making lower direction nibbel to 0
     aee:	20 7f       	andi	r18, 0xF0	; 240
 PortARestore |= Direction; // adding lower nibbel for forward command and restoring the PORTA status
     af0:	22 60       	ori	r18, 0x02	; 2
 PORTA = PortARestore; 		// executing the command
     af2:	22 b9       	out	0x02, r18	; 2
void soft_right_degrees(unsigned int Degrees)
{
	// 176 pulses for 360 degrees rotation 2.045 degrees per count
	soft_right();  //Turn soft right
	Degrees=Degrees*2;
	angle_rotate(Degrees);
     af4:	88 0f       	add	r24, r24
     af6:	99 1f       	adc	r25, r25
     af8:	0e 94 18 05 	call	0xa30	; 0xa30 <angle_rotate>
}
     afc:	08 95       	ret

00000afe <soft_left_2_degrees>:
void motion_set (unsigned char Direction)
{
 unsigned char PortARestore = 0;

 Direction &= 0x0F; 		// removing upper nibbel for the protection
 PortARestore = PORTA; 		// reading the PORTA original status
     afe:	22 b1       	in	r18, 0x02	; 2
 PortARestore &= 0xF0; 		// making lower direction nibbel to 0
     b00:	20 7f       	andi	r18, 0xF0	; 240
 PortARestore |= Direction; // adding lower nibbel for forward command and restoring the PORTA status
     b02:	21 60       	ori	r18, 0x01	; 1
 PORTA = PortARestore; 		// executing the command
     b04:	22 b9       	out	0x02, r18	; 2
void soft_left_2_degrees(unsigned int Degrees)
{
	// 176 pulses for 360 degrees rotation 2.045 degrees per count
	soft_left_2(); //Turn reverse soft left
	Degrees=Degrees*2;
	angle_rotate(Degrees);
     b06:	88 0f       	add	r24, r24
     b08:	99 1f       	adc	r25, r25
     b0a:	0e 94 18 05 	call	0xa30	; 0xa30 <angle_rotate>
}
     b0e:	08 95       	ret

00000b10 <soft_right_2_degrees>:
void motion_set (unsigned char Direction)
{
 unsigned char PortARestore = 0;

 Direction &= 0x0F; 		// removing upper nibbel for the protection
 PortARestore = PORTA; 		// reading the PORTA original status
     b10:	22 b1       	in	r18, 0x02	; 2
 PortARestore &= 0xF0; 		// making lower direction nibbel to 0
     b12:	20 7f       	andi	r18, 0xF0	; 240
 PortARestore |= Direction; // adding lower nibbel for forward command and restoring the PORTA status
     b14:	28 60       	ori	r18, 0x08	; 8
 PORTA = PortARestore; 		// executing the command
     b16:	22 b9       	out	0x02, r18	; 2
void soft_right_2_degrees(unsigned int Degrees)
{
	// 176 pulses for 360 degrees rotation 2.045 degrees per count
	soft_right_2();  //Turn reverse soft right
	Degrees=Degrees*2;
	angle_rotate(Degrees);
     b18:	88 0f       	add	r24, r24
     b1a:	99 1f       	adc	r25, r25
     b1c:	0e 94 18 05 	call	0xa30	; 0xa30 <angle_rotate>
}
     b20:	08 95       	ret

00000b22 <init_devices>:

void init_devices (void)
{
 	cli(); //Clears the global interrupts
     b22:	f8 94       	cli
	port_init();
     b24:	0e 94 fa 03 	call	0x7f4	; 0x7f4 <port_init>
	TCCR5B = 0x0B;	//WGM12=1; CS12=0, CS11=1, CS10=1 (Prescaler=64)
}

void adc_init()
{
	ADCSRA = 0x00;
     b28:	ea e7       	ldi	r30, 0x7A	; 122
     b2a:	f0 e0       	ldi	r31, 0x00	; 0
     b2c:	10 82       	st	Z, r1
	ADCSRB = 0x00;		//MUX5 = 0
     b2e:	10 92 7b 00 	sts	0x007B, r1
	ADMUX = 0x20;		//Vref=5V external --- ADLAR=1 --- MUX4:0 = 0000
     b32:	80 e2       	ldi	r24, 0x20	; 32
     b34:	80 93 7c 00 	sts	0x007C, r24
	ACSR = 0x80;
     b38:	80 e8       	ldi	r24, 0x80	; 128
     b3a:	80 bf       	out	0x30, r24	; 48
	ADCSRA = 0x86;		//ADEN=1 --- ADIE=1 --- ADPS2:0 = 1 1 0
     b3c:	86 e8       	ldi	r24, 0x86	; 134
     b3e:	80 83       	st	Z, r24
// Prescale:256
// PWM 8bit fast, TOP=0x00FF
// Timer Frequency:225.000Hz
void timer5_init()
{
	TCCR5B = 0x00;	//Stop
     b40:	e1 e2       	ldi	r30, 0x21	; 33
     b42:	f1 e0       	ldi	r31, 0x01	; 1
     b44:	10 82       	st	Z, r1
	TCNT5H = 0xFF;	//Counter higher 8-bit value to which OCR5xH value is compared with
     b46:	9f ef       	ldi	r25, 0xFF	; 255
     b48:	90 93 25 01 	sts	0x0125, r25
	TCNT5L = 0x01;	//Counter lower 8-bit value to which OCR5xH value is compared with
     b4c:	81 e0       	ldi	r24, 0x01	; 1
     b4e:	80 93 24 01 	sts	0x0124, r24
	OCR5AH = 0x00;	//Output compare register high value for Left Motor
     b52:	10 92 29 01 	sts	0x0129, r1
	OCR5AL = 0xFF;	//Output compare register low value for Left Motor
     b56:	90 93 28 01 	sts	0x0128, r25
	OCR5BH = 0x00;	//Output compare register high value for Right Motor
     b5a:	10 92 2b 01 	sts	0x012B, r1
	OCR5BL = 0xFF;	//Output compare register low value for Right Motor
     b5e:	90 93 2a 01 	sts	0x012A, r25
	OCR5CH = 0x00;	//Output compare register high value for Motor C1
     b62:	10 92 2d 01 	sts	0x012D, r1
	OCR5CL = 0xFF;	//Output compare register low value for Motor C1
     b66:	90 93 2c 01 	sts	0x012C, r25
	TCCR5A = 0xA9;	/*{COM5A1=1, COM5A0=0; COM5B1=1, COM5B0=0; COM5C1=1 COM5C0=0}
     b6a:	89 ea       	ldi	r24, 0xA9	; 169
     b6c:	80 93 20 01 	sts	0x0120, r24
 					  For Overriding normal port functionality to OCRnA outputs.
				  	  {WGM51=0, WGM50=1} Along With WGM52 in TCCR5B for Selecting FAST PWM 8-bit Mode*/
	
	TCCR5B = 0x0B;	//WGM12=1; CS12=0, CS11=1, CS10=1 (Prescaler=64)
     b70:	8b e0       	ldi	r24, 0x0B	; 11
     b72:	80 83       	st	Z, r24
	right_encoder_pin_config(); //right encoder pin config
}

void left_position_encoder_interrupt_init (void) //Interrupt 4 enable
{
	cli(); //Clears the global interrupt
     b74:	f8 94       	cli
	EICRB = EICRB | 0x02; // INT4 is set to trigger with falling edge
     b76:	ea e6       	ldi	r30, 0x6A	; 106
     b78:	f0 e0       	ldi	r31, 0x00	; 0
     b7a:	80 81       	ld	r24, Z
     b7c:	82 60       	ori	r24, 0x02	; 2
     b7e:	80 83       	st	Z, r24
	EIMSK = EIMSK | 0x10; // Enable Interrupt INT4 for left position encoder
     b80:	ec 9a       	sbi	0x1d, 4	; 29
	sei();   // Enables the global interrupt
     b82:	78 94       	sei
}

void right_position_encoder_interrupt_init (void) //Interrupt 5 enable
{
	cli(); //Clears the global interrupt
     b84:	f8 94       	cli
	EICRB = EICRB | 0x08; // INT5 is set to trigger with falling edge
     b86:	ea e6       	ldi	r30, 0x6A	; 106
     b88:	f0 e0       	ldi	r31, 0x00	; 0
     b8a:	80 81       	ld	r24, Z
     b8c:	88 60       	ori	r24, 0x08	; 8
     b8e:	80 83       	st	Z, r24
	EIMSK = EIMSK | 0x20; // Enable Interrupt INT5 for right position encoder
     b90:	ed 9a       	sbi	0x1d, 5	; 29
	sei();   // Enables the global interrupt
     b92:	78 94       	sei
	port_init();
	adc_init();
	timer5_init();
	left_position_encoder_interrupt_init();
	right_position_encoder_interrupt_init();
	sei();   //Enables the global interrupts
     b94:	78 94       	sei
}
     b96:	08 95       	ret

00000b98 <move>:
	*Example Call: move();
*/

void move()
{
	senser_value_L = ADC_Conversion(3);	//Getting data of Left WL Sensor
     b98:	83 e0       	ldi	r24, 0x03	; 3
     b9a:	0e 94 c4 04 	call	0x988	; 0x988 <ADC_Conversion>
     b9e:	80 93 9f 17 	sts	0x179F, r24
     ba2:	10 92 a0 17 	sts	0x17A0, r1
	senser_value_C = ADC_Conversion(2);	//Getting data of Center WL Sensor
     ba6:	82 e0       	ldi	r24, 0x02	; 2
     ba8:	0e 94 c4 04 	call	0x988	; 0x988 <ADC_Conversion>
     bac:	80 93 0c 17 	sts	0x170C, r24
     bb0:	10 92 0d 17 	sts	0x170D, r1
	senser_value_R = ADC_Conversion(1);	//Getting data of Right WL Sensor
     bb4:	81 e0       	ldi	r24, 0x01	; 1
     bb6:	0e 94 c4 04 	call	0x988	; 0x988 <ADC_Conversion>
     bba:	28 2f       	mov	r18, r24
     bbc:	30 e0       	ldi	r19, 0x00	; 0
     bbe:	30 93 d1 17 	sts	0x17D1, r19
     bc2:	20 93 d0 17 	sts	0x17D0, r18

	// If black line is at left sensor and center sensor is not decting a black line
	// Speed up right motor a bit to get a left turn
	// Further set the flag to be equal to '1' suggesting that bot has taken left turn this time
	if ((senser_value_L > Threshold) && (senser_value_C < Threshold))
     bc6:	40 91 9f 17 	lds	r20, 0x179F
     bca:	50 91 a0 17 	lds	r21, 0x17A0
     bce:	49 32       	cpi	r20, 0x29	; 41
     bd0:	51 05       	cpc	r21, r1
     bd2:	f4 f0       	brlt	.+60     	; 0xc10 <move+0x78>
     bd4:	80 91 0c 17 	lds	r24, 0x170C
     bd8:	90 91 0d 17 	lds	r25, 0x170D
     bdc:	88 97       	sbiw	r24, 0x28	; 40
     bde:	c4 f4       	brge	.+48     	; 0xc10 <move+0x78>
void motion_set (unsigned char Direction)
{
 unsigned char PortARestore = 0;

 Direction &= 0x0F; 		// removing upper nibbel for the protection
 PortARestore = PORTA; 		// reading the PORTA original status
     be0:	82 b1       	in	r24, 0x02	; 2
 PortARestore &= 0xF0; 		// making lower direction nibbel to 0
     be2:	80 7f       	andi	r24, 0xF0	; 240
 PortARestore |= Direction; // adding lower nibbel for forward command and restoring the PORTA status
     be4:	86 60       	ori	r24, 0x06	; 6
 PORTA = PortARestore; 		// executing the command
     be6:	82 b9       	out	0x02, r24	; 2
	// Speed up right motor a bit to get a left turn
	// Further set the flag to be equal to '1' suggesting that bot has taken left turn this time
	if ((senser_value_L > Threshold) && (senser_value_C < Threshold))
	{
		forward();
		left_motor = 125;
     be8:	8d e7       	ldi	r24, 0x7D	; 125
     bea:	90 e0       	ldi	r25, 0x00	; 0
     bec:	90 93 3f 04 	sts	0x043F, r25
     bf0:	80 93 3e 04 	sts	0x043E, r24
		right_motor = 250;
     bf4:	8a ef       	ldi	r24, 0xFA	; 250
     bf6:	90 e0       	ldi	r25, 0x00	; 0
     bf8:	90 93 41 04 	sts	0x0441, r25
     bfc:	80 93 40 04 	sts	0x0440, r24
}

//Function for velocity control
void velocity (unsigned char left_motor, unsigned char right_motor)
{
	OCR5AL = (unsigned char)left_motor;
     c00:	8d e7       	ldi	r24, 0x7D	; 125
     c02:	80 93 28 01 	sts	0x0128, r24
	OCR5BL = (unsigned char)right_motor;
     c06:	8a ef       	ldi	r24, 0xFA	; 250
     c08:	80 93 2a 01 	sts	0x012A, r24
	{
		forward();
		left_motor = 125;
		right_motor = 250;
		velocity(left_motor,right_motor);
		flag = 1;
     c0c:	81 e0       	ldi	r24, 0x01	; 1
     c0e:	20 c0       	rjmp	.+64     	; 0xc50 <move+0xb8>
	}
	// If black line is at right sensor and center sensor is not decting a black line
	// Speed up left motor a bit to get a right turn
	// Further set the flag to be equal to '2' suggesting that bot has taken right turn this time
	else if ((senser_value_R > Threshold) && (senser_value_C < Threshold))
     c10:	29 32       	cpi	r18, 0x29	; 41
     c12:	31 05       	cpc	r19, r1
     c14:	04 f1       	brlt	.+64     	; 0xc56 <move+0xbe>
     c16:	80 91 0c 17 	lds	r24, 0x170C
     c1a:	90 91 0d 17 	lds	r25, 0x170D
     c1e:	88 97       	sbiw	r24, 0x28	; 40
     c20:	d4 f4       	brge	.+52     	; 0xc56 <move+0xbe>
void motion_set (unsigned char Direction)
{
 unsigned char PortARestore = 0;

 Direction &= 0x0F; 		// removing upper nibbel for the protection
 PortARestore = PORTA; 		// reading the PORTA original status
     c22:	82 b1       	in	r24, 0x02	; 2
 PortARestore &= 0xF0; 		// making lower direction nibbel to 0
     c24:	80 7f       	andi	r24, 0xF0	; 240
 PortARestore |= Direction; // adding lower nibbel for forward command and restoring the PORTA status
     c26:	86 60       	ori	r24, 0x06	; 6
 PORTA = PortARestore; 		// executing the command
     c28:	82 b9       	out	0x02, r24	; 2
	// Speed up left motor a bit to get a right turn
	// Further set the flag to be equal to '2' suggesting that bot has taken right turn this time
	else if ((senser_value_R > Threshold) && (senser_value_C < Threshold))
	{
		forward();
		left_motor = 250;
     c2a:	8a ef       	ldi	r24, 0xFA	; 250
     c2c:	90 e0       	ldi	r25, 0x00	; 0
     c2e:	90 93 3f 04 	sts	0x043F, r25
     c32:	80 93 3e 04 	sts	0x043E, r24
		right_motor = 125;
     c36:	8d e7       	ldi	r24, 0x7D	; 125
     c38:	90 e0       	ldi	r25, 0x00	; 0
     c3a:	90 93 41 04 	sts	0x0441, r25
     c3e:	80 93 40 04 	sts	0x0440, r24
}

//Function for velocity control
void velocity (unsigned char left_motor, unsigned char right_motor)
{
	OCR5AL = (unsigned char)left_motor;
     c42:	8a ef       	ldi	r24, 0xFA	; 250
     c44:	80 93 28 01 	sts	0x0128, r24
	OCR5BL = (unsigned char)right_motor;
     c48:	8d e7       	ldi	r24, 0x7D	; 125
     c4a:	80 93 2a 01 	sts	0x012A, r24
	{
		forward();
		left_motor = 250;
		right_motor = 125;
		velocity(left_motor,right_motor);
		flag = 2;
     c4e:	82 e0       	ldi	r24, 0x02	; 2
     c50:	80 93 38 04 	sts	0x0438, r24
     c54:	08 95       	ret
	}
	// If black line is at center sensor and left & right sensors are not decting a black line
	// Speed up both motors equally to get a straight movement
	else if ((senser_value_C > Threshold) && (senser_value_L < Threshold) && (senser_value_R < Threshold))
     c56:	80 91 0c 17 	lds	r24, 0x170C
     c5a:	90 91 0d 17 	lds	r25, 0x170D
     c5e:	89 32       	cpi	r24, 0x29	; 41
     c60:	91 05       	cpc	r25, r1
     c62:	c4 f0       	brlt	.+48     	; 0xc94 <move+0xfc>
     c64:	48 32       	cpi	r20, 0x28	; 40
     c66:	51 05       	cpc	r21, r1
     c68:	ac f4       	brge	.+42     	; 0xc94 <move+0xfc>
     c6a:	28 32       	cpi	r18, 0x28	; 40
     c6c:	31 05       	cpc	r19, r1
     c6e:	dc f5       	brge	.+118    	; 0xce6 <move+0x14e>
void motion_set (unsigned char Direction)
{
 unsigned char PortARestore = 0;

 Direction &= 0x0F; 		// removing upper nibbel for the protection
 PortARestore = PORTA; 		// reading the PORTA original status
     c70:	82 b1       	in	r24, 0x02	; 2
 PortARestore &= 0xF0; 		// making lower direction nibbel to 0
     c72:	80 7f       	andi	r24, 0xF0	; 240
 PortARestore |= Direction; // adding lower nibbel for forward command and restoring the PORTA status
     c74:	86 60       	ori	r24, 0x06	; 6
 PORTA = PortARestore; 		// executing the command
     c76:	82 b9       	out	0x02, r24	; 2
	// If black line is at center sensor and left & right sensors are not decting a black line
	// Speed up both motors equally to get a straight movement
	else if ((senser_value_C > Threshold) && (senser_value_L < Threshold) && (senser_value_R < Threshold))
	{
		forward();
		left_motor = 250;
     c78:	8a ef       	ldi	r24, 0xFA	; 250
     c7a:	90 e0       	ldi	r25, 0x00	; 0
     c7c:	90 93 3f 04 	sts	0x043F, r25
     c80:	80 93 3e 04 	sts	0x043E, r24
		right_motor = 250;
     c84:	90 93 41 04 	sts	0x0441, r25
     c88:	80 93 40 04 	sts	0x0440, r24
}

//Function for velocity control
void velocity (unsigned char left_motor, unsigned char right_motor)
{
	OCR5AL = (unsigned char)left_motor;
     c8c:	8a ef       	ldi	r24, 0xFA	; 250
     c8e:	80 93 28 01 	sts	0x0128, r24
     c92:	20 c0       	rjmp	.+64     	; 0xcd4 <move+0x13c>
		right_motor = 250;
		velocity(left_motor, right_motor);
	}
	// If black line is nowhere to be found
	// Speed up right or left motor according to the flag set
	else if ((senser_value_R < Threshold) && (senser_value_C < Threshold) && (senser_value_L < Threshold))
     c94:	28 32       	cpi	r18, 0x28	; 40
     c96:	31 05       	cpc	r19, r1
     c98:	34 f5       	brge	.+76     	; 0xce6 <move+0x14e>
     c9a:	88 97       	sbiw	r24, 0x28	; 40
     c9c:	24 f5       	brge	.+72     	; 0xce6 <move+0x14e>
     c9e:	48 32       	cpi	r20, 0x28	; 40
     ca0:	51 05       	cpc	r21, r1
     ca2:	0c f5       	brge	.+66     	; 0xce6 <move+0x14e>
void motion_set (unsigned char Direction)
{
 unsigned char PortARestore = 0;

 Direction &= 0x0F; 		// removing upper nibbel for the protection
 PortARestore = PORTA; 		// reading the PORTA original status
     ca4:	82 b1       	in	r24, 0x02	; 2
 PortARestore &= 0xF0; 		// making lower direction nibbel to 0
     ca6:	80 7f       	andi	r24, 0xF0	; 240
 PortARestore |= Direction; // adding lower nibbel for forward command and restoring the PORTA status
     ca8:	86 60       	ori	r24, 0x06	; 6
 PORTA = PortARestore; 		// executing the command
     caa:	82 b9       	out	0x02, r24	; 2
	// If black line is nowhere to be found
	// Speed up right or left motor according to the flag set
	else if ((senser_value_R < Threshold) && (senser_value_C < Threshold) && (senser_value_L < Threshold))
	{
		forward();
		left_motor = 100;
     cac:	84 e6       	ldi	r24, 0x64	; 100
     cae:	90 e0       	ldi	r25, 0x00	; 0
     cb0:	90 93 3f 04 	sts	0x043F, r25
     cb4:	80 93 3e 04 	sts	0x043E, r24
		right_motor = 250;
     cb8:	8a ef       	ldi	r24, 0xFA	; 250
     cba:	90 e0       	ldi	r25, 0x00	; 0
     cbc:	90 93 41 04 	sts	0x0441, r25
     cc0:	80 93 40 04 	sts	0x0440, r24
		if (flag == 1) {
     cc4:	80 91 38 04 	lds	r24, 0x0438
     cc8:	81 30       	cpi	r24, 0x01	; 1
     cca:	39 f4       	brne	.+14     	; 0xcda <move+0x142>
}

//Function for velocity control
void velocity (unsigned char left_motor, unsigned char right_motor)
{
	OCR5AL = (unsigned char)left_motor;
     ccc:	84 e6       	ldi	r24, 0x64	; 100
     cce:	80 93 28 01 	sts	0x0128, r24
	OCR5BL = (unsigned char)right_motor;
     cd2:	8a ef       	ldi	r24, 0xFA	; 250
     cd4:	80 93 2a 01 	sts	0x012A, r24
     cd8:	08 95       	ret
}

//Function for velocity control
void velocity (unsigned char left_motor, unsigned char right_motor)
{
	OCR5AL = (unsigned char)left_motor;
     cda:	8a ef       	ldi	r24, 0xFA	; 250
     cdc:	80 93 28 01 	sts	0x0128, r24
	OCR5BL = (unsigned char)right_motor;
     ce0:	84 e6       	ldi	r24, 0x64	; 100
     ce2:	80 93 2a 01 	sts	0x012A, r24
     ce6:	08 95       	ret

00000ce8 <linear_distance_mm>:
}

//Function used for moving robot forward by specified distance

void linear_distance_mm(unsigned int DistanceInMM)
{
     ce8:	ef 92       	push	r14
     cea:	ff 92       	push	r15
     cec:	0f 93       	push	r16
     cee:	1f 93       	push	r17
	float ReqdShaftCount = 0;
	unsigned long int ReqdShaftCountInt = 0;

	ReqdShaftCount = DistanceInMM / 5.338; // division by resolution to get shaft count
	ReqdShaftCountInt = (unsigned long int) ReqdShaftCount;
     cf0:	a0 e0       	ldi	r26, 0x00	; 0
     cf2:	b0 e0       	ldi	r27, 0x00	; 0
     cf4:	bc 01       	movw	r22, r24
     cf6:	cd 01       	movw	r24, r26
     cf8:	0e 94 89 13 	call	0x2712	; 0x2712 <__floatunsisf>
     cfc:	25 ee       	ldi	r18, 0xE5	; 229
     cfe:	30 ed       	ldi	r19, 0xD0	; 208
     d00:	4a ea       	ldi	r20, 0xAA	; 170
     d02:	50 e4       	ldi	r21, 0x40	; 64
     d04:	0e 94 59 12 	call	0x24b2	; 0x24b2 <__divsf3>
     d08:	0e 94 83 10 	call	0x2106	; 0x2106 <__fixunssfsi>
     d0c:	7b 01       	movw	r14, r22
     d0e:	8c 01       	movw	r16, r24
	
	ShaftCountRight = 0;
     d10:	10 92 34 04 	sts	0x0434, r1
     d14:	10 92 35 04 	sts	0x0435, r1
     d18:	10 92 36 04 	sts	0x0436, r1
     d1c:	10 92 37 04 	sts	0x0437, r1
	while(1)
	{
		move();
     d20:	0e 94 cc 05 	call	0xb98	; 0xb98 <move>
		if(ShaftCountRight > ReqdShaftCountInt)
     d24:	80 91 34 04 	lds	r24, 0x0434
     d28:	90 91 35 04 	lds	r25, 0x0435
     d2c:	a0 91 36 04 	lds	r26, 0x0436
     d30:	b0 91 37 04 	lds	r27, 0x0437
     d34:	e8 16       	cp	r14, r24
     d36:	f9 06       	cpc	r15, r25
     d38:	0a 07       	cpc	r16, r26
     d3a:	1b 07       	cpc	r17, r27
     d3c:	88 f7       	brcc	.-30     	; 0xd20 <linear_distance_mm+0x38>
void motion_set (unsigned char Direction)
{
 unsigned char PortARestore = 0;

 Direction &= 0x0F; 		// removing upper nibbel for the protection
 PortARestore = PORTA; 		// reading the PORTA original status
     d3e:	82 b1       	in	r24, 0x02	; 2
 PortARestore &= 0xF0; 		// making lower direction nibbel to 0
     d40:	80 7f       	andi	r24, 0xF0	; 240
 PortARestore |= Direction; // adding lower nibbel for forward command and restoring the PORTA status
 PORTA = PortARestore; 		// executing the command
     d42:	82 b9       	out	0x02, r24	; 2
		{
			break;
		}
	}
	stop(); //Stop robot
}
     d44:	1f 91       	pop	r17
     d46:	0f 91       	pop	r16
     d48:	ff 90       	pop	r15
     d4a:	ef 90       	pop	r14
     d4c:	08 95       	ret

00000d4e <back_mm>:
void motion_set (unsigned char Direction)
{
 unsigned char PortARestore = 0;

 Direction &= 0x0F; 		// removing upper nibbel for the protection
 PortARestore = PORTA; 		// reading the PORTA original status
     d4e:	22 b1       	in	r18, 0x02	; 2
 PortARestore &= 0xF0; 		// making lower direction nibbel to 0
     d50:	20 7f       	andi	r18, 0xF0	; 240
 PortARestore |= Direction; // adding lower nibbel for forward command and restoring the PORTA status
     d52:	29 60       	ori	r18, 0x09	; 9
 PORTA = PortARestore; 		// executing the command
     d54:	22 b9       	out	0x02, r18	; 2
}

void back_mm(unsigned int DistanceInMM)
{
	back();
	linear_distance_mm(DistanceInMM);
     d56:	0e 94 74 06 	call	0xce8	; 0xce8 <linear_distance_mm>
}
     d5a:	08 95       	ret

00000d5c <forward_mm>:
void motion_set (unsigned char Direction)
{
 unsigned char PortARestore = 0;

 Direction &= 0x0F; 		// removing upper nibbel for the protection
 PortARestore = PORTA; 		// reading the PORTA original status
     d5c:	22 b1       	in	r18, 0x02	; 2
 PortARestore &= 0xF0; 		// making lower direction nibbel to 0
     d5e:	20 7f       	andi	r18, 0xF0	; 240
 PortARestore |= Direction; // adding lower nibbel for forward command and restoring the PORTA status
     d60:	26 60       	ori	r18, 0x06	; 6
 PORTA = PortARestore; 		// executing the command
     d62:	22 b9       	out	0x02, r18	; 2
}

void forward_mm(unsigned int DistanceInMM)
{
	forward();
	linear_distance_mm(DistanceInMM);
     d64:	0e 94 74 06 	call	0xce8	; 0xce8 <linear_distance_mm>
}
     d68:	08 95       	ret

00000d6a <lcd_set_4bit>:
    milliseconds can be achieved.
 */
void
_delay_loop_2(uint16_t __count)
{
	__asm__ volatile (
     d6a:	86 e6       	ldi	r24, 0x66	; 102
     d6c:	9e e0       	ldi	r25, 0x0E	; 14
     d6e:	fc 01       	movw	r30, r24
     d70:	31 97       	sbiw	r30, 0x01	; 1
     d72:	f1 f7       	brne	.-4      	; 0xd70 <lcd_set_4bit+0x6>
//Function to Reset LCD
void lcd_set_4bit()
{
	_delay_ms(1);

	cbit(lcd_port,RS);				//RS=0 --- Command Input
     d74:	40 98       	cbi	0x08, 0	; 8
	cbit(lcd_port,RW);				//RW=0 --- Writing to LCD
     d76:	41 98       	cbi	0x08, 1	; 8
	lcd_port = 0x30;				//Sending 3
     d78:	40 e3       	ldi	r20, 0x30	; 48
     d7a:	48 b9       	out	0x08, r20	; 8
	sbit(lcd_port,EN);				//Set Enable Pin
     d7c:	42 9a       	sbi	0x08, 2	; 8
     d7e:	20 e0       	ldi	r18, 0x00	; 0
     d80:	38 e4       	ldi	r19, 0x48	; 72
     d82:	f9 01       	movw	r30, r18
     d84:	31 97       	sbiw	r30, 0x01	; 1
     d86:	f1 f7       	brne	.-4      	; 0xd84 <lcd_set_4bit+0x1a>
	_delay_ms(5);					//Delay
	cbit(lcd_port,EN);				//Clear Enable Pin
     d88:	42 98       	cbi	0x08, 2	; 8
     d8a:	fc 01       	movw	r30, r24
     d8c:	31 97       	sbiw	r30, 0x01	; 1
     d8e:	f1 f7       	brne	.-4      	; 0xd8c <lcd_set_4bit+0x22>

	_delay_ms(1);

	cbit(lcd_port,RS);				//RS=0 --- Command Input
     d90:	40 98       	cbi	0x08, 0	; 8
	cbit(lcd_port,RW);				//RW=0 --- Writing to LCD
     d92:	41 98       	cbi	0x08, 1	; 8
	lcd_port = 0x30;				//Sending 3
     d94:	48 b9       	out	0x08, r20	; 8
	sbit(lcd_port,EN);				//Set Enable Pin
     d96:	42 9a       	sbi	0x08, 2	; 8
     d98:	f9 01       	movw	r30, r18
     d9a:	31 97       	sbiw	r30, 0x01	; 1
     d9c:	f1 f7       	brne	.-4      	; 0xd9a <lcd_set_4bit+0x30>
	_delay_ms(5);					//Delay
	cbit(lcd_port,EN);				//Clear Enable Pin
     d9e:	42 98       	cbi	0x08, 2	; 8
     da0:	fc 01       	movw	r30, r24
     da2:	31 97       	sbiw	r30, 0x01	; 1
     da4:	f1 f7       	brne	.-4      	; 0xda2 <lcd_set_4bit+0x38>

	_delay_ms(1);

	cbit(lcd_port,RS);				//RS=0 --- Command Input
     da6:	40 98       	cbi	0x08, 0	; 8
	cbit(lcd_port,RW);				//RW=0 --- Writing to LCD
     da8:	41 98       	cbi	0x08, 1	; 8
	lcd_port = 0x30;				//Sending 3
     daa:	48 b9       	out	0x08, r20	; 8
	sbit(lcd_port,EN);				//Set Enable Pin
     dac:	42 9a       	sbi	0x08, 2	; 8
     dae:	f9 01       	movw	r30, r18
     db0:	31 97       	sbiw	r30, 0x01	; 1
     db2:	f1 f7       	brne	.-4      	; 0xdb0 <lcd_set_4bit+0x46>
	_delay_ms(5);					//Delay
	cbit(lcd_port,EN);				//Clear Enable Pin
     db4:	42 98       	cbi	0x08, 2	; 8
     db6:	01 97       	sbiw	r24, 0x01	; 1
     db8:	f1 f7       	brne	.-4      	; 0xdb6 <lcd_set_4bit+0x4c>

	_delay_ms(1);

	cbit(lcd_port,RS);				//RS=0 --- Command Input
     dba:	40 98       	cbi	0x08, 0	; 8
	cbit(lcd_port,RW);				//RW=0 --- Writing to LCD
     dbc:	41 98       	cbi	0x08, 1	; 8
	lcd_port = 0x20;				//Sending 2 to initialise LCD 4-bit mode
     dbe:	80 e2       	ldi	r24, 0x20	; 32
     dc0:	88 b9       	out	0x08, r24	; 8
	sbit(lcd_port,EN);				//Set Enable Pin
     dc2:	42 9a       	sbi	0x08, 2	; 8
     dc4:	c9 01       	movw	r24, r18
     dc6:	01 97       	sbiw	r24, 0x01	; 1
     dc8:	f1 f7       	brne	.-4      	; 0xdc6 <lcd_set_4bit+0x5c>
	_delay_ms(5);					//Delay
	cbit(lcd_port,EN);				//Clear Enable Pin
     dca:	42 98       	cbi	0x08, 2	; 8

	
}
     dcc:	08 95       	ret

00000dce <lcd_wr_command>:
void lcd_wr_command(unsigned char cmd)
{
	unsigned char temp;
	temp = cmd;
	temp = temp & 0xF0;
	lcd_port &= 0x0F;
     dce:	98 b1       	in	r25, 0x08	; 8
     dd0:	9f 70       	andi	r25, 0x0F	; 15
     dd2:	98 b9       	out	0x08, r25	; 8
	lcd_port |= temp;
     dd4:	28 b1       	in	r18, 0x08	; 8
     dd6:	98 2f       	mov	r25, r24
     dd8:	90 7f       	andi	r25, 0xF0	; 240
     dda:	92 2b       	or	r25, r18
     ddc:	98 b9       	out	0x08, r25	; 8
	cbit(lcd_port,RS);
     dde:	40 98       	cbi	0x08, 0	; 8
	cbit(lcd_port,RW);
     de0:	41 98       	cbi	0x08, 1	; 8
	sbit(lcd_port,EN);
     de2:	42 9a       	sbi	0x08, 2	; 8
     de4:	20 e0       	ldi	r18, 0x00	; 0
     de6:	38 e4       	ldi	r19, 0x48	; 72
     de8:	f9 01       	movw	r30, r18
     dea:	31 97       	sbiw	r30, 0x01	; 1
     dec:	f1 f7       	brne	.-4      	; 0xdea <lcd_wr_command+0x1c>
	_delay_ms(5);
	cbit(lcd_port,EN);
     dee:	42 98       	cbi	0x08, 2	; 8
	
	cmd = cmd & 0x0F;
	cmd = cmd<<4;
	lcd_port &= 0x0F;
     df0:	98 b1       	in	r25, 0x08	; 8
     df2:	9f 70       	andi	r25, 0x0F	; 15
     df4:	98 b9       	out	0x08, r25	; 8
	lcd_port |= cmd;
     df6:	98 b1       	in	r25, 0x08	; 8
     df8:	82 95       	swap	r24
     dfa:	80 7f       	andi	r24, 0xF0	; 240
     dfc:	98 2b       	or	r25, r24
     dfe:	98 b9       	out	0x08, r25	; 8
	cbit(lcd_port,RS);
     e00:	40 98       	cbi	0x08, 0	; 8
	cbit(lcd_port,RW);
     e02:	41 98       	cbi	0x08, 1	; 8
	sbit(lcd_port,EN);
     e04:	42 9a       	sbi	0x08, 2	; 8
     e06:	c9 01       	movw	r24, r18
     e08:	01 97       	sbiw	r24, 0x01	; 1
     e0a:	f1 f7       	brne	.-4      	; 0xe08 <lcd_wr_command+0x3a>
	_delay_ms(5);
	cbit(lcd_port,EN);
     e0c:	42 98       	cbi	0x08, 2	; 8
}
     e0e:	08 95       	ret

00000e10 <lcd_init>:
}

//Function to Initialize LCD
void lcd_init()
{
	lcd_set_4bit();
     e10:	0e 94 b5 06 	call	0xd6a	; 0xd6a <lcd_set_4bit>
     e14:	86 e6       	ldi	r24, 0x66	; 102
     e16:	9e e0       	ldi	r25, 0x0E	; 14
     e18:	01 97       	sbiw	r24, 0x01	; 1
     e1a:	f1 f7       	brne	.-4      	; 0xe18 <lcd_init+0x8>
	_delay_ms(1);

	lcd_wr_command(0x28);			//LCD 4-bit mode and 2 lines.
     e1c:	88 e2       	ldi	r24, 0x28	; 40
     e1e:	0e 94 e7 06 	call	0xdce	; 0xdce <lcd_wr_command>
	lcd_wr_command(0x01);
     e22:	81 e0       	ldi	r24, 0x01	; 1
     e24:	0e 94 e7 06 	call	0xdce	; 0xdce <lcd_wr_command>
	lcd_wr_command(0x06);
     e28:	86 e0       	ldi	r24, 0x06	; 6
     e2a:	0e 94 e7 06 	call	0xdce	; 0xdce <lcd_wr_command>
	lcd_wr_command(0x0E);
     e2e:	8e e0       	ldi	r24, 0x0E	; 14
     e30:	0e 94 e7 06 	call	0xdce	; 0xdce <lcd_wr_command>
	lcd_wr_command(0x80);
     e34:	80 e8       	ldi	r24, 0x80	; 128
     e36:	0e 94 e7 06 	call	0xdce	; 0xdce <lcd_wr_command>
		
}
     e3a:	08 95       	ret

00000e3c <lcd_wr_char>:
void lcd_wr_char(char letter)
{
	char temp;
	temp = letter;
	temp = (temp & 0xF0);
	lcd_port &= 0x0F;
     e3c:	98 b1       	in	r25, 0x08	; 8
     e3e:	9f 70       	andi	r25, 0x0F	; 15
     e40:	98 b9       	out	0x08, r25	; 8
	lcd_port |= temp;
     e42:	28 b1       	in	r18, 0x08	; 8
     e44:	98 2f       	mov	r25, r24
     e46:	90 7f       	andi	r25, 0xF0	; 240
     e48:	92 2b       	or	r25, r18
     e4a:	98 b9       	out	0x08, r25	; 8
	sbit(lcd_port,RS);
     e4c:	40 9a       	sbi	0x08, 0	; 8
	cbit(lcd_port,RW);
     e4e:	41 98       	cbi	0x08, 1	; 8
	sbit(lcd_port,EN);
     e50:	42 9a       	sbi	0x08, 2	; 8
     e52:	20 e0       	ldi	r18, 0x00	; 0
     e54:	38 e4       	ldi	r19, 0x48	; 72
     e56:	f9 01       	movw	r30, r18
     e58:	31 97       	sbiw	r30, 0x01	; 1
     e5a:	f1 f7       	brne	.-4      	; 0xe58 <lcd_wr_char+0x1c>
	_delay_ms(5);
	cbit(lcd_port,EN);
     e5c:	42 98       	cbi	0x08, 2	; 8

	letter = letter & 0x0F;
	letter = letter<<4;
	lcd_port &= 0x0F;
     e5e:	98 b1       	in	r25, 0x08	; 8
     e60:	9f 70       	andi	r25, 0x0F	; 15
     e62:	98 b9       	out	0x08, r25	; 8
	lcd_port |= letter;
     e64:	98 b1       	in	r25, 0x08	; 8
     e66:	82 95       	swap	r24
     e68:	80 7f       	andi	r24, 0xF0	; 240
     e6a:	98 2b       	or	r25, r24
     e6c:	98 b9       	out	0x08, r25	; 8
	sbit(lcd_port,RS);
     e6e:	40 9a       	sbi	0x08, 0	; 8
	cbit(lcd_port,RW);
     e70:	41 98       	cbi	0x08, 1	; 8
	sbit(lcd_port,EN);
     e72:	42 9a       	sbi	0x08, 2	; 8
     e74:	c9 01       	movw	r24, r18
     e76:	01 97       	sbiw	r24, 0x01	; 1
     e78:	f1 f7       	brne	.-4      	; 0xe76 <lcd_wr_char+0x3a>
	_delay_ms(5);
	cbit(lcd_port,EN);
     e7a:	42 98       	cbi	0x08, 2	; 8
}
     e7c:	08 95       	ret

00000e7e <lcd_home>:


//Function to bring cursor at home position
void lcd_home()
{
	lcd_wr_command(0x80);
     e7e:	80 e8       	ldi	r24, 0x80	; 128
     e80:	0e 94 e7 06 	call	0xdce	; 0xdce <lcd_wr_command>
}
     e84:	08 95       	ret

00000e86 <lcd_string>:


//Function to Print String on LCD
void lcd_string(char *str)
{
     e86:	cf 93       	push	r28
     e88:	df 93       	push	r29
     e8a:	ec 01       	movw	r28, r24
     e8c:	03 c0       	rjmp	.+6      	; 0xe94 <lcd_string+0xe>
	while(*str != '\0')
	{
		lcd_wr_char(*str);
     e8e:	0e 94 1e 07 	call	0xe3c	; 0xe3c <lcd_wr_char>
		str++;
     e92:	21 96       	adiw	r28, 0x01	; 1


//Function to Print String on LCD
void lcd_string(char *str)
{
	while(*str != '\0')
     e94:	88 81       	ld	r24, Y
     e96:	88 23       	and	r24, r24
     e98:	d1 f7       	brne	.-12     	; 0xe8e <lcd_string+0x8>
	{
		lcd_wr_char(*str);
		str++;
	}
}
     e9a:	df 91       	pop	r29
     e9c:	cf 91       	pop	r28
     e9e:	08 95       	ret

00000ea0 <lcd_cursor>:

//Position the LCD cursor at "row", "column".

void lcd_cursor (char row, char column)
{
	switch (row) {
     ea0:	82 30       	cpi	r24, 0x02	; 2
     ea2:	69 f0       	breq	.+26     	; 0xebe <lcd_cursor+0x1e>
     ea4:	83 30       	cpi	r24, 0x03	; 3
     ea6:	18 f4       	brcc	.+6      	; 0xeae <lcd_cursor+0xe>
     ea8:	81 30       	cpi	r24, 0x01	; 1
     eaa:	a9 f4       	brne	.+42     	; 0xed6 <lcd_cursor+0x36>
     eac:	05 c0       	rjmp	.+10     	; 0xeb8 <lcd_cursor+0x18>
     eae:	83 30       	cpi	r24, 0x03	; 3
     eb0:	49 f0       	breq	.+18     	; 0xec4 <lcd_cursor+0x24>
     eb2:	84 30       	cpi	r24, 0x04	; 4
     eb4:	81 f4       	brne	.+32     	; 0xed6 <lcd_cursor+0x36>
     eb6:	0b c0       	rjmp	.+22     	; 0xece <lcd_cursor+0x2e>
		case 1: lcd_wr_command (0x80 + column - 1); break;
     eb8:	86 2f       	mov	r24, r22
     eba:	81 58       	subi	r24, 0x81	; 129
     ebc:	05 c0       	rjmp	.+10     	; 0xec8 <lcd_cursor+0x28>
		case 2: lcd_wr_command (0xc0 + column - 1); break;
     ebe:	86 2f       	mov	r24, r22
     ec0:	81 54       	subi	r24, 0x41	; 65
     ec2:	02 c0       	rjmp	.+4      	; 0xec8 <lcd_cursor+0x28>
		case 3: lcd_wr_command (0x94 + column - 1); break;
     ec4:	86 2f       	mov	r24, r22
     ec6:	8d 56       	subi	r24, 0x6D	; 109
     ec8:	0e 94 e7 06 	call	0xdce	; 0xdce <lcd_wr_command>
     ecc:	08 95       	ret
		case 4: lcd_wr_command (0xd4 + column - 1); break;
     ece:	86 2f       	mov	r24, r22
     ed0:	8d 52       	subi	r24, 0x2D	; 45
     ed2:	0e 94 e7 06 	call	0xdce	; 0xdce <lcd_wr_command>
     ed6:	08 95       	ret

00000ed8 <lcd_print>:
	}
}

//Function To Print Any input value upto the desired digit on LCD
void lcd_print (char row, char coloumn, unsigned int value, int digits)
{
     ed8:	0f 93       	push	r16
     eda:	1f 93       	push	r17
     edc:	cf 93       	push	r28
     ede:	df 93       	push	r29
     ee0:	8a 01       	movw	r16, r20
     ee2:	e9 01       	movw	r28, r18
	unsigned char flag=0;
	if(row==0||coloumn==0)
     ee4:	88 23       	and	r24, r24
     ee6:	11 f0       	breq	.+4      	; 0xeec <lcd_print+0x14>
     ee8:	66 23       	and	r22, r22
     eea:	19 f4       	brne	.+6      	; 0xef2 <lcd_print+0x1a>
	{
		lcd_home();
     eec:	0e 94 3f 07 	call	0xe7e	; 0xe7e <lcd_home>
     ef0:	02 c0       	rjmp	.+4      	; 0xef6 <lcd_print+0x1e>
	}
	else
	{
		lcd_cursor(row,coloumn);
     ef2:	0e 94 50 07 	call	0xea0	; 0xea0 <lcd_cursor>
	}
	if(digits==5 || flag==1)
     ef6:	c5 30       	cpi	r28, 0x05	; 5
     ef8:	d1 05       	cpc	r29, r1
     efa:	71 f4       	brne	.+28     	; 0xf18 <lcd_print+0x40>
	{
		million=value/10000+48;
     efc:	c8 01       	movw	r24, r16
     efe:	60 e1       	ldi	r22, 0x10	; 16
     f00:	77 e2       	ldi	r23, 0x27	; 39
     f02:	0e 94 fc 16 	call	0x2df8	; 0x2df8 <__udivmodhi4>
     f06:	cb 01       	movw	r24, r22
     f08:	c0 96       	adiw	r24, 0x30	; 48
     f0a:	90 93 99 17 	sts	0x1799, r25
     f0e:	80 93 98 17 	sts	0x1798, r24
		lcd_wr_char(million);
     f12:	0e 94 1e 07 	call	0xe3c	; 0xe3c <lcd_wr_char>
     f16:	05 c0       	rjmp	.+10     	; 0xf22 <lcd_print+0x4a>
		flag=1;
	}
	if(digits==4 || flag==1)
     f18:	c4 30       	cpi	r28, 0x04	; 4
     f1a:	d1 05       	cpc	r29, r1
     f1c:	11 f0       	breq	.+4      	; 0xf22 <lcd_print+0x4a>
     f1e:	80 e0       	ldi	r24, 0x00	; 0
     f20:	16 c0       	rjmp	.+44     	; 0xf4e <lcd_print+0x76>
	{
		temp = value/1000;
     f22:	c8 01       	movw	r24, r16
     f24:	68 ee       	ldi	r22, 0xE8	; 232
     f26:	73 e0       	ldi	r23, 0x03	; 3
     f28:	0e 94 fc 16 	call	0x2df8	; 0x2df8 <__udivmodhi4>
     f2c:	cb 01       	movw	r24, r22
     f2e:	60 93 9a 17 	sts	0x179A, r22
     f32:	90 93 9b 17 	sts	0x179B, r25
		thousand = temp%10 + 48;
     f36:	6a e0       	ldi	r22, 0x0A	; 10
     f38:	70 e0       	ldi	r23, 0x00	; 0
     f3a:	0e 94 fc 16 	call	0x2df8	; 0x2df8 <__udivmodhi4>
     f3e:	c0 96       	adiw	r24, 0x30	; 48
     f40:	90 93 d5 17 	sts	0x17D5, r25
     f44:	80 93 d4 17 	sts	0x17D4, r24
		lcd_wr_char(thousand);
     f48:	0e 94 1e 07 	call	0xe3c	; 0xe3c <lcd_wr_char>
     f4c:	81 e0       	ldi	r24, 0x01	; 1
		flag=1;
	}
	if(digits==3 || flag==1)
     f4e:	c3 30       	cpi	r28, 0x03	; 3
     f50:	d1 05       	cpc	r29, r1
     f52:	21 f0       	breq	.+8      	; 0xf5c <lcd_print+0x84>
     f54:	81 30       	cpi	r24, 0x01	; 1
     f56:	11 f0       	breq	.+4      	; 0xf5c <lcd_print+0x84>
     f58:	80 e0       	ldi	r24, 0x00	; 0
     f5a:	16 c0       	rjmp	.+44     	; 0xf88 <lcd_print+0xb0>
	{
		temp = value/100;
     f5c:	c8 01       	movw	r24, r16
     f5e:	64 e6       	ldi	r22, 0x64	; 100
     f60:	70 e0       	ldi	r23, 0x00	; 0
     f62:	0e 94 fc 16 	call	0x2df8	; 0x2df8 <__udivmodhi4>
     f66:	cb 01       	movw	r24, r22
     f68:	60 93 9a 17 	sts	0x179A, r22
     f6c:	90 93 9b 17 	sts	0x179B, r25
		hundred = temp%10 + 48;
     f70:	6a e0       	ldi	r22, 0x0A	; 10
     f72:	70 e0       	ldi	r23, 0x00	; 0
     f74:	0e 94 fc 16 	call	0x2df8	; 0x2df8 <__udivmodhi4>
     f78:	c0 96       	adiw	r24, 0x30	; 48
     f7a:	90 93 cf 17 	sts	0x17CF, r25
     f7e:	80 93 ce 17 	sts	0x17CE, r24
		lcd_wr_char(hundred);
     f82:	0e 94 1e 07 	call	0xe3c	; 0xe3c <lcd_wr_char>
     f86:	81 e0       	ldi	r24, 0x01	; 1
		flag=1;
	}
	if(digits==2 || flag==1)
     f88:	c2 30       	cpi	r28, 0x02	; 2
     f8a:	d1 05       	cpc	r29, r1
     f8c:	21 f0       	breq	.+8      	; 0xf96 <lcd_print+0xbe>
     f8e:	81 30       	cpi	r24, 0x01	; 1
     f90:	11 f0       	breq	.+4      	; 0xf96 <lcd_print+0xbe>
     f92:	80 e0       	ldi	r24, 0x00	; 0
     f94:	16 c0       	rjmp	.+44     	; 0xfc2 <lcd_print+0xea>
	{
		temp = value/10;
     f96:	c8 01       	movw	r24, r16
     f98:	6a e0       	ldi	r22, 0x0A	; 10
     f9a:	70 e0       	ldi	r23, 0x00	; 0
     f9c:	0e 94 fc 16 	call	0x2df8	; 0x2df8 <__udivmodhi4>
     fa0:	cb 01       	movw	r24, r22
     fa2:	60 93 9a 17 	sts	0x179A, r22
     fa6:	90 93 9b 17 	sts	0x179B, r25
		tens = temp%10 + 48;
     faa:	6a e0       	ldi	r22, 0x0A	; 10
     fac:	70 e0       	ldi	r23, 0x00	; 0
     fae:	0e 94 fc 16 	call	0x2df8	; 0x2df8 <__udivmodhi4>
     fb2:	c0 96       	adiw	r24, 0x30	; 48
     fb4:	90 93 9e 17 	sts	0x179E, r25
     fb8:	80 93 9d 17 	sts	0x179D, r24
		lcd_wr_char(tens);
     fbc:	0e 94 1e 07 	call	0xe3c	; 0xe3c <lcd_wr_char>
     fc0:	81 e0       	ldi	r24, 0x01	; 1
		flag=1;
	}
	if(digits==1 || flag==1)
     fc2:	c1 30       	cpi	r28, 0x01	; 1
     fc4:	d1 05       	cpc	r29, r1
     fc6:	11 f0       	breq	.+4      	; 0xfcc <lcd_print+0xf4>
     fc8:	81 30       	cpi	r24, 0x01	; 1
     fca:	61 f4       	brne	.+24     	; 0xfe4 <lcd_print+0x10c>
	{
		unit = value%10 + 48;
     fcc:	c8 01       	movw	r24, r16
     fce:	6a e0       	ldi	r22, 0x0A	; 10
     fd0:	70 e0       	ldi	r23, 0x00	; 0
     fd2:	0e 94 fc 16 	call	0x2df8	; 0x2df8 <__udivmodhi4>
     fd6:	c0 96       	adiw	r24, 0x30	; 48
     fd8:	90 93 d3 17 	sts	0x17D3, r25
     fdc:	80 93 d2 17 	sts	0x17D2, r24
		lcd_wr_char(unit);
     fe0:	0e 94 1e 07 	call	0xe3c	; 0xe3c <lcd_wr_char>
	}
	if(digits>5)
     fe4:	26 97       	sbiw	r28, 0x06	; 6
     fe6:	1c f0       	brlt	.+6      	; 0xfee <lcd_print+0x116>
	{
		lcd_wr_char('E');
     fe8:	85 e4       	ldi	r24, 0x45	; 69
     fea:	0e 94 1e 07 	call	0xe3c	; 0xe3c <lcd_wr_char>
	}
	
}
     fee:	df 91       	pop	r29
     ff0:	cf 91       	pop	r28
     ff2:	1f 91       	pop	r17
     ff4:	0f 91       	pop	r16
     ff6:	08 95       	ret

00000ff8 <print_sensor>:
	return a;
}

//Function To Print Sesor Values At Desired Row And Coloumn Location on LCD
void print_sensor(char row, char coloumn,unsigned char channel)
{
     ff8:	0f 93       	push	r16
     ffa:	1f 93       	push	r17
     ffc:	18 2f       	mov	r17, r24
     ffe:	06 2f       	mov	r16, r22
    1000:	84 2f       	mov	r24, r20
	
	ADC_Value = ADC_Conversion(channel);
    1002:	0e 94 c4 04 	call	0x988	; 0x988 <ADC_Conversion>
    1006:	48 2f       	mov	r20, r24
    1008:	80 93 9c 17 	sts	0x179C, r24
	lcd_print(row, coloumn, ADC_Value, 3);
    100c:	81 2f       	mov	r24, r17
    100e:	90 e0       	ldi	r25, 0x00	; 0
    1010:	60 2f       	mov	r22, r16
    1012:	70 e0       	ldi	r23, 0x00	; 0
    1014:	50 e0       	ldi	r21, 0x00	; 0
    1016:	23 e0       	ldi	r18, 0x03	; 3
    1018:	30 e0       	ldi	r19, 0x00	; 0
    101a:	0e 94 6c 07 	call	0xed8	; 0xed8 <lcd_print>

	return ADC_Value;
}
    101e:	1f 91       	pop	r17
    1020:	0f 91       	pop	r16
    1022:	08 95       	ret

00001024 <servo3_pin_config>:
	**********************************END**************************************
*/

void servo3_pin_config (void)
{
 DDRB  = DDRB | 0x80;  //making PORTB 7 pin output
    1024:	27 9a       	sbi	0x04, 7	; 4
 PORTB = PORTB | 0x80; //setting PORTB 7 pin to logic 1
    1026:	2f 9a       	sbi	0x05, 7	; 5
}
    1028:	08 95       	ret

0000102a <buzzer_pin_config>:
	*Example Call: int *cost = BFS(source);
*/

void buzzer_pin_config (void)
{
 DDRC = DDRC | 0x08;		//Setting PORTC 3 as output
    102a:	3b 9a       	sbi	0x07, 3	; 7
 PORTC = PORTC & 0xF7;		//Setting PORTC 3 logic low to turnoff buzzer
    102c:	43 98       	cbi	0x08, 3	; 8
}
    102e:	08 95       	ret

00001030 <lcd_port_config>:
//Function to configure LCD port
void lcd_port_config (void)
{
	DDRC = DDRC | 0xF7; //all the LCD pin's direction set as output
    1030:	87 b1       	in	r24, 0x07	; 7
    1032:	87 6f       	ori	r24, 0xF7	; 247
    1034:	87 b9       	out	0x07, r24	; 7
	PORTC = PORTC & 0x80; // all the LCD pins are set to logic 0 except PORTC 7
    1036:	88 b1       	in	r24, 0x08	; 8
    1038:	80 78       	andi	r24, 0x80	; 128
    103a:	88 b9       	out	0x08, r24	; 8
}
    103c:	08 95       	ret

0000103e <port_initial>:
	**********************************END**************************************
*/

void servo3_pin_config (void)
{
 DDRB  = DDRB | 0x80;  //making PORTB 7 pin output
    103e:	27 9a       	sbi	0x04, 7	; 4
 PORTB = PORTB | 0x80; //setting PORTB 7 pin to logic 1
    1040:	2f 9a       	sbi	0x05, 7	; 5
 PORTC = PORTC & 0xF7;		//Setting PORTC 3 logic low to turnoff buzzer
}
//Function to configure LCD port
void lcd_port_config (void)
{
	DDRC = DDRC | 0xF7; //all the LCD pin's direction set as output
    1042:	87 b1       	in	r24, 0x07	; 7
    1044:	87 6f       	ori	r24, 0xF7	; 247
    1046:	87 b9       	out	0x07, r24	; 7
	PORTC = PORTC & 0x80; // all the LCD pins are set to logic 0 except PORTC 7
    1048:	88 b1       	in	r24, 0x08	; 8
    104a:	80 78       	andi	r24, 0x80	; 128
    104c:	88 b9       	out	0x08, r24	; 8
*/

//ADC pin configuration
void adc_pin_config (void)
{
 DDRF = 0x00; 
    104e:	10 ba       	out	0x10, r1	; 16
 PORTF = 0x00;
    1050:	11 ba       	out	0x11, r1	; 17
 DDRK = 0x00;
    1052:	10 92 07 01 	sts	0x0107, r1
 PORTK = 0x00;
    1056:	10 92 08 01 	sts	0x0108, r1
}

//Function to configure ports to enable robot's motion
void motion_pin_config (void) 
{
 DDRA = DDRA | 0x0F;
    105a:	81 b1       	in	r24, 0x01	; 1
    105c:	8f 60       	ori	r24, 0x0F	; 15
    105e:	81 b9       	out	0x01, r24	; 1
 PORTA = PORTA & 0xF0;
    1060:	82 b1       	in	r24, 0x02	; 2
    1062:	80 7f       	andi	r24, 0xF0	; 240
    1064:	82 b9       	out	0x02, r24	; 2
 DDRL = DDRL | 0x18;   //Setting PL3 and PL4 pins as output for PWM generation
    1066:	ea e0       	ldi	r30, 0x0A	; 10
    1068:	f1 e0       	ldi	r31, 0x01	; 1
    106a:	80 81       	ld	r24, Z
    106c:	88 61       	ori	r24, 0x18	; 24
    106e:	80 83       	st	Z, r24
 PORTL = PORTL | 0x18; //PL3 and PL4 pins are for velocity control using PWM.
    1070:	eb e0       	ldi	r30, 0x0B	; 11
    1072:	f1 e0       	ldi	r31, 0x01	; 1
    1074:	80 81       	ld	r24, Z
    1076:	88 61       	ori	r24, 0x18	; 24
    1078:	80 83       	st	Z, r24
	*Example Call: int *cost = BFS(source);
*/

void buzzer_pin_config (void)
{
 DDRC = DDRC | 0x08;		//Setting PORTC 3 as output
    107a:	3b 9a       	sbi	0x07, 3	; 7
 PORTC = PORTC & 0xF7;		//Setting PORTC 3 logic low to turnoff buzzer
    107c:	43 98       	cbi	0x08, 3	; 8
}

void left_encoder_pin_config (void)
{
	DDRE  = DDRE & 0xEF;  //Set the direction of the PORTE 4 pin as input
    107e:	6c 98       	cbi	0x0d, 4	; 13
	PORTE = PORTE | 0x10; //Enable internal pull-up for PORTE 4 pin
    1080:	74 9a       	sbi	0x0e, 4	; 14
}

//Function to configure INT5 (PORTE 5) pin as input for the right position encoder
void right_encoder_pin_config (void)
{
	DDRE  = DDRE & 0xDF;  //Set the direction of the PORTE 4 pin as input
    1082:	6d 98       	cbi	0x0d, 5	; 13
	PORTE = PORTE | 0x20; //Enable internal pull-up for PORTE 4 pin
    1084:	75 9a       	sbi	0x0e, 5	; 14
	adc_pin_config();
	motion_pin_config();	
	buzzer_pin_config();
	left_encoder_pin_config(); //left encoder pin config
	right_encoder_pin_config(); //right encoder pin config
}
    1086:	08 95       	ret

00001088 <uart0_init>:
// actual baud rate:9600 (error 0.0%)
// char arr_size: 8 bit
// parity: Disabled
void uart0_init(void)
{
 UCSR0B = 0x00; //disable while setting baud rate
    1088:	e1 ec       	ldi	r30, 0xC1	; 193
    108a:	f0 e0       	ldi	r31, 0x00	; 0
    108c:	10 82       	st	Z, r1
 UCSR0A = 0x00;
    108e:	10 92 c0 00 	sts	0x00C0, r1
 UCSR0C = 0x06;
    1092:	86 e0       	ldi	r24, 0x06	; 6
    1094:	80 93 c2 00 	sts	0x00C2, r24
 UBRR0L = 0x5F; //set baud rate lo
    1098:	8f e5       	ldi	r24, 0x5F	; 95
    109a:	80 93 c4 00 	sts	0x00C4, r24
 UBRR0H = 0x00; //set baud rate hi
    109e:	10 92 c5 00 	sts	0x00C5, r1
 UCSR0B = 0x98;
    10a2:	88 e9       	ldi	r24, 0x98	; 152
    10a4:	80 83       	st	Z, r24
}
    10a6:	08 95       	ret

000010a8 <uart2_init>:
// actual baud rate:9600 (error 0.0%)
// char arr_size: 8 bit
// parity: Disabled
void uart2_init(void)
{
 UCSR2B = 0x00; //disable while setting baud rate
    10a8:	e1 ed       	ldi	r30, 0xD1	; 209
    10aa:	f0 e0       	ldi	r31, 0x00	; 0
    10ac:	10 82       	st	Z, r1
 UCSR2A = 0x00;
    10ae:	10 92 d0 00 	sts	0x00D0, r1
 UCSR2C = 0x06;
    10b2:	86 e0       	ldi	r24, 0x06	; 6
    10b4:	80 93 d2 00 	sts	0x00D2, r24
 UBRR2L = 0x5F; //set baud rate lo
    10b8:	8f e5       	ldi	r24, 0x5F	; 95
    10ba:	80 93 d4 00 	sts	0x00D4, r24
 UBRR2H = 0x00; //set baud rate hi
    10be:	10 92 d5 00 	sts	0x00D5, r1
 UCSR2B = 0x98;
    10c2:	88 e9       	ldi	r24, 0x98	; 152
    10c4:	80 83       	st	Z, r24
}
    10c6:	08 95       	ret

000010c8 <buzzer_on>:

void buzzer_on (void)
{
 unsigned char port_restore = 0;
 port_restore = PINC;
    10c8:	86 b1       	in	r24, 0x06	; 6
 port_restore = port_restore | 0x08;
    10ca:	88 60       	ori	r24, 0x08	; 8
 PORTC = port_restore;
    10cc:	88 b9       	out	0x08, r24	; 8
}
    10ce:	08 95       	ret

000010d0 <buzzer_off>:

void buzzer_off (void)
{
 unsigned char port_restore = 0;
 port_restore = PINC;
    10d0:	86 b1       	in	r24, 0x06	; 6
 port_restore = port_restore & 0xF7;
    10d2:	87 7f       	andi	r24, 0xF7	; 247
 PORTC = port_restore;
    10d4:	88 b9       	out	0x08, r24	; 8
}
    10d6:	08 95       	ret

000010d8 <servo_3>:

void servo_3(unsigned char degrees)
{
 float PositionServo = 0;
 PositionServo = ((float)degrees / 1.86) + 35.0;
 OCR1CH = 0x00;
    10d8:	10 92 8d 00 	sts	0x008D, r1
 OCR1CL = (unsigned char) PositionServo;
    10dc:	90 e0       	ldi	r25, 0x00	; 0
    10de:	a0 e0       	ldi	r26, 0x00	; 0
    10e0:	b0 e0       	ldi	r27, 0x00	; 0
    10e2:	bc 01       	movw	r22, r24
    10e4:	cd 01       	movw	r24, r26
    10e6:	0e 94 89 13 	call	0x2712	; 0x2712 <__floatunsisf>
    10ea:	2b e7       	ldi	r18, 0x7B	; 123
    10ec:	34 e1       	ldi	r19, 0x14	; 20
    10ee:	4e ee       	ldi	r20, 0xEE	; 238
    10f0:	5f e3       	ldi	r21, 0x3F	; 63
    10f2:	0e 94 59 12 	call	0x24b2	; 0x24b2 <__divsf3>
    10f6:	20 e0       	ldi	r18, 0x00	; 0
    10f8:	30 e0       	ldi	r19, 0x00	; 0
    10fa:	4c e0       	ldi	r20, 0x0C	; 12
    10fc:	52 e4       	ldi	r21, 0x42	; 66
    10fe:	0e 94 2c 12 	call	0x2458	; 0x2458 <__addsf3>
    1102:	0e 94 83 10 	call	0x2106	; 0x2106 <__fixunssfsi>
    1106:	60 93 8c 00 	sts	0x008C, r22
}
    110a:	08 95       	ret

0000110c <remove_zero>:
	*Logic: Removes the zeros from the seqence_arr which were inserted by seperate
	*example-call: remove_zero();
*/
void remove_zero() {
	int i = 0, j = 1;
    arr_slave[0] = 13;
    110c:	8d e0       	ldi	r24, 0x0D	; 13
    110e:	90 e0       	ldi	r25, 0x00	; 0
    1110:	90 93 a7 17 	sts	0x17A7, r25
    1114:	80 93 a6 17 	sts	0x17A6, r24
	while (i < arr_size)
    1118:	60 91 44 04 	lds	r22, 0x0444
    111c:	70 91 45 04 	lds	r23, 0x0445
    1120:	a0 91 a4 17 	lds	r26, 0x17A4
    1124:	b0 91 a5 17 	lds	r27, 0x17A5
    1128:	20 e0       	ldi	r18, 0x00	; 0
    112a:	30 e0       	ldi	r19, 0x00	; 0
    112c:	81 e0       	ldi	r24, 0x01	; 1
    112e:	90 e0       	ldi	r25, 0x00	; 0
    1130:	11 c0       	rjmp	.+34     	; 0x1154 <remove_zero+0x48>
	{
		if(sequence_arr[i]!=0)
    1132:	4d 91       	ld	r20, X+
    1134:	5c 91       	ld	r21, X
    1136:	11 97       	sbiw	r26, 0x01	; 1
    1138:	41 15       	cp	r20, r1
    113a:	51 05       	cpc	r21, r1
    113c:	41 f0       	breq	.+16     	; 0x114e <remove_zero+0x42>
		{
			arr_slave[j] = sequence_arr[i];
    113e:	fc 01       	movw	r30, r24
    1140:	ee 0f       	add	r30, r30
    1142:	ff 1f       	adc	r31, r31
    1144:	ea 55       	subi	r30, 0x5A	; 90
    1146:	f8 4e       	sbci	r31, 0xE8	; 232
    1148:	51 83       	std	Z+1, r21	; 0x01
    114a:	40 83       	st	Z, r20
			j++;
    114c:	01 96       	adiw	r24, 0x01	; 1
		}
		i++;
    114e:	2f 5f       	subi	r18, 0xFF	; 255
    1150:	3f 4f       	sbci	r19, 0xFF	; 255
    1152:	12 96       	adiw	r26, 0x02	; 2
	*example-call: remove_zero();
*/
void remove_zero() {
	int i = 0, j = 1;
    arr_slave[0] = 13;
	while (i < arr_size)
    1154:	26 17       	cp	r18, r22
    1156:	37 07       	cpc	r19, r23
    1158:	64 f3       	brlt	.-40     	; 0x1132 <remove_zero+0x26>
			arr_slave[j] = sequence_arr[i];
			j++;
		}
		i++;
	}
	slave_size = j;
    115a:	90 93 47 04 	sts	0x0447, r25
    115e:	80 93 46 04 	sts	0x0446, r24
}
    1162:	08 95       	ret

00001164 <initial_devices>:
}*/

//Function To Initialize all The Devices
void initial_devices()
{
 	cli(); //Clears the global interrupts
    1164:	f8 94       	cli
 	port_initial();  //Initializes all the ports
    1166:	0e 94 1f 08 	call	0x103e	; 0x103e <port_initial>
	TCCR5B = 0x0B;	//WGM12=1; CS12=0, CS11=1, CS10=1 (Prescaler=64)
}

void adc_init()
{
	ADCSRA = 0x00;
    116a:	ea e7       	ldi	r30, 0x7A	; 122
    116c:	f0 e0       	ldi	r31, 0x00	; 0
    116e:	10 82       	st	Z, r1
	ADCSRB = 0x00;		//MUX5 = 0
    1170:	10 92 7b 00 	sts	0x007B, r1
	ADMUX = 0x20;		//Vref=5V external --- ADLAR=1 --- MUX4:0 = 0000
    1174:	80 e2       	ldi	r24, 0x20	; 32
    1176:	80 93 7c 00 	sts	0x007C, r24
	ACSR = 0x80;
    117a:	80 e8       	ldi	r24, 0x80	; 128
    117c:	80 bf       	out	0x30, r24	; 48
	ADCSRA = 0x86;		//ADEN=1 --- ADIE=1 --- ADPS2:0 = 1 1 0
    117e:	86 e8       	ldi	r24, 0x86	; 134
    1180:	80 83       	st	Z, r24
 	adc_init();
 	timer1_init();
    1182:	0e 94 79 04 	call	0x8f2	; 0x8f2 <timer1_init>
// Prescale:256
// PWM 8bit fast, TOP=0x00FF
// Timer Frequency:225.000Hz
void timer5_init()
{
	TCCR5B = 0x00;	//Stop
    1186:	e1 e2       	ldi	r30, 0x21	; 33
    1188:	f1 e0       	ldi	r31, 0x01	; 1
    118a:	10 82       	st	Z, r1
	TCNT5H = 0xFF;	//Counter higher 8-bit value to which OCR5xH value is compared with
    118c:	9f ef       	ldi	r25, 0xFF	; 255
    118e:	90 93 25 01 	sts	0x0125, r25
	TCNT5L = 0x01;	//Counter lower 8-bit value to which OCR5xH value is compared with
    1192:	81 e0       	ldi	r24, 0x01	; 1
    1194:	80 93 24 01 	sts	0x0124, r24
	OCR5AH = 0x00;	//Output compare register high value for Left Motor
    1198:	10 92 29 01 	sts	0x0129, r1
	OCR5AL = 0xFF;	//Output compare register low value for Left Motor
    119c:	90 93 28 01 	sts	0x0128, r25
	OCR5BH = 0x00;	//Output compare register high value for Right Motor
    11a0:	10 92 2b 01 	sts	0x012B, r1
	OCR5BL = 0xFF;	//Output compare register low value for Right Motor
    11a4:	90 93 2a 01 	sts	0x012A, r25
	OCR5CH = 0x00;	//Output compare register high value for Motor C1
    11a8:	10 92 2d 01 	sts	0x012D, r1
	OCR5CL = 0xFF;	//Output compare register low value for Motor C1
    11ac:	90 93 2c 01 	sts	0x012C, r25
	TCCR5A = 0xA9;	/*{COM5A1=1, COM5A0=0; COM5B1=1, COM5B0=0; COM5C1=1 COM5C0=0}
    11b0:	89 ea       	ldi	r24, 0xA9	; 169
    11b2:	80 93 20 01 	sts	0x0120, r24
 					  For Overriding normal port functionality to OCRnA outputs.
				  	  {WGM51=0, WGM50=1} Along With WGM52 in TCCR5B for Selecting FAST PWM 8-bit Mode*/
	
	TCCR5B = 0x0B;	//WGM12=1; CS12=0, CS11=1, CS10=1 (Prescaler=64)
    11b6:	8b e0       	ldi	r24, 0x0B	; 11
    11b8:	80 83       	st	Z, r24
	right_encoder_pin_config(); //right encoder pin config
}

void left_position_encoder_interrupt_init (void) //Interrupt 4 enable
{
	cli(); //Clears the global interrupt
    11ba:	f8 94       	cli
	EICRB = EICRB | 0x02; // INT4 is set to trigger with falling edge
    11bc:	ea e6       	ldi	r30, 0x6A	; 106
    11be:	f0 e0       	ldi	r31, 0x00	; 0
    11c0:	80 81       	ld	r24, Z
    11c2:	82 60       	ori	r24, 0x02	; 2
    11c4:	80 83       	st	Z, r24
	EIMSK = EIMSK | 0x10; // Enable Interrupt INT4 for left position encoder
    11c6:	ec 9a       	sbi	0x1d, 4	; 29
	sei();   // Enables the global interrupt
    11c8:	78 94       	sei
}

void right_position_encoder_interrupt_init (void) //Interrupt 5 enable
{
	cli(); //Clears the global interrupt
    11ca:	f8 94       	cli
	EICRB = EICRB | 0x08; // INT5 is set to trigger with falling edge
    11cc:	ea e6       	ldi	r30, 0x6A	; 106
    11ce:	f0 e0       	ldi	r31, 0x00	; 0
    11d0:	80 81       	ld	r24, Z
    11d2:	88 60       	ori	r24, 0x08	; 8
    11d4:	80 83       	st	Z, r24
	EIMSK = EIMSK | 0x20; // Enable Interrupt INT5 for right position encoder
    11d6:	ed 9a       	sbi	0x1d, 5	; 29
	sei();   // Enables the global interrupt
    11d8:	78 94       	sei
// actual baud rate:9600 (error 0.0%)
// char arr_size: 8 bit
// parity: Disabled
void uart0_init(void)
{
 UCSR0B = 0x00; //disable while setting baud rate
    11da:	e1 ec       	ldi	r30, 0xC1	; 193
    11dc:	f0 e0       	ldi	r31, 0x00	; 0
    11de:	10 82       	st	Z, r1
 UCSR0A = 0x00;
    11e0:	10 92 c0 00 	sts	0x00C0, r1
 UCSR0C = 0x06;
    11e4:	26 e0       	ldi	r18, 0x06	; 6
    11e6:	20 93 c2 00 	sts	0x00C2, r18
 UBRR0L = 0x5F; //set baud rate lo
    11ea:	9f e5       	ldi	r25, 0x5F	; 95
    11ec:	90 93 c4 00 	sts	0x00C4, r25
 UBRR0H = 0x00; //set baud rate hi
    11f0:	10 92 c5 00 	sts	0x00C5, r1
 UCSR0B = 0x98;
    11f4:	88 e9       	ldi	r24, 0x98	; 152
    11f6:	80 83       	st	Z, r24
// actual baud rate:9600 (error 0.0%)
// char arr_size: 8 bit
// parity: Disabled
void uart2_init(void)
{
 UCSR2B = 0x00; //disable while setting baud rate
    11f8:	e1 ed       	ldi	r30, 0xD1	; 209
    11fa:	f0 e0       	ldi	r31, 0x00	; 0
    11fc:	10 82       	st	Z, r1
 UCSR2A = 0x00;
    11fe:	10 92 d0 00 	sts	0x00D0, r1
 UCSR2C = 0x06;
    1202:	20 93 d2 00 	sts	0x00D2, r18
 UBRR2L = 0x5F; //set baud rate lo
    1206:	90 93 d4 00 	sts	0x00D4, r25
 UBRR2H = 0x00; //set baud rate hi
    120a:	10 92 d5 00 	sts	0x00D5, r1
 UCSR2B = 0x98;
    120e:	80 83       	st	Z, r24
	timer5_init();
	left_position_encoder_interrupt_init();
	right_position_encoder_interrupt_init();
	uart0_init(); //Initailize UART0 for serial communiaction
	uart2_init(); //Initailize UART1 for serial communiaction
 	sei();   //Enables the global interrupts
    1210:	78 94       	sei
}
    1212:	08 95       	ret

00001214 <__vector_25>:
	++Counter;
	UDR0 = Counter;
}

SIGNAL(SIG_USART0_RECV) 		// ISR for receive complete interrupt
{
    1214:	1f 92       	push	r1
    1216:	0f 92       	push	r0
    1218:	0f b6       	in	r0, 0x3f	; 63
    121a:	0f 92       	push	r0
    121c:	0b b6       	in	r0, 0x3b	; 59
    121e:	0f 92       	push	r0
    1220:	11 24       	eor	r1, r1
    1222:	2f 93       	push	r18
    1224:	3f 93       	push	r19
    1226:	4f 93       	push	r20
    1228:	5f 93       	push	r21
    122a:	6f 93       	push	r22
    122c:	7f 93       	push	r23
    122e:	8f 93       	push	r24
    1230:	9f 93       	push	r25
    1232:	af 93       	push	r26
    1234:	bf 93       	push	r27
    1236:	ef 93       	push	r30
    1238:	ff 93       	push	r31
	data = UDR0; 				//making copy of data from UDR0 in 'data' variable
    123a:	80 91 c6 00 	lds	r24, 0x00C6
    123e:	80 93 a3 17 	sts	0x17A3, r24
	UDR2 = data; 				//echo data back to PC
    1242:	80 93 d6 00 	sts	0x00D6, r24
	if (count == -1)
    1246:	40 91 1f 03 	lds	r20, 0x031F
    124a:	50 91 20 03 	lds	r21, 0x0320
    124e:	9f ef       	ldi	r25, 0xFF	; 255
    1250:	4f 3f       	cpi	r20, 0xFF	; 255
    1252:	59 07       	cpc	r21, r25
    1254:	e1 f4       	brne	.+56     	; 0x128e <__vector_25+0x7a>
    1256:	28 ee       	ldi	r18, 0xE8	; 232
    1258:	33 e0       	ldi	r19, 0x03	; 3
    125a:	40 e7       	ldi	r20, 0x70	; 112
    125c:	51 e0       	ldi	r21, 0x01	; 1
    125e:	fa 01       	movw	r30, r20
    1260:	31 97       	sbiw	r30, 0x01	; 1
    1262:	f1 f7       	brne	.-4      	; 0x1260 <__vector_25+0x4c>
		__ticks = (uint16_t) (__ms * 10.0);
		while(__ticks)
		{
			// wait 1/10 ms
			_delay_loop_2(((F_CPU) / 4e3) / 10);
			__ticks --;
    1264:	21 50       	subi	r18, 0x01	; 1
    1266:	30 40       	sbci	r19, 0x00	; 0
		__ticks = 1;
	else if (__tmp > 65535)
	{
		//	__ticks = requested delay in 1/10 ms
		__ticks = (uint16_t) (__ms * 10.0);
		while(__ticks)
    1268:	d1 f7       	brne	.-12     	; 0x125e <__vector_25+0x4a>
	{
		_delay_ms(100);
		arr_size = (signed int) data;
    126a:	90 e0       	ldi	r25, 0x00	; 0
    126c:	90 93 45 04 	sts	0x0445, r25
    1270:	80 93 44 04 	sts	0x0444, r24
		count++;
    1274:	10 92 20 03 	sts	0x0320, r1
    1278:	10 92 1f 03 	sts	0x031F, r1
		sequence_arr = (signed int*) malloc(arr_size*sizeof(signed int));
    127c:	88 0f       	add	r24, r24
    127e:	99 1f       	adc	r25, r25
    1280:	0e 94 f7 15 	call	0x2bee	; 0x2bee <malloc>
    1284:	80 93 a4 17 	sts	0x17A4, r24
    1288:	90 93 a5 17 	sts	0x17A5, r25
    128c:	2c c0       	rjmp	.+88     	; 0x12e6 <__vector_25+0xd2>
	}

	else if (count < arr_size) {
    128e:	20 91 44 04 	lds	r18, 0x0444
    1292:	30 91 45 04 	lds	r19, 0x0445
    1296:	42 17       	cp	r20, r18
    1298:	53 07       	cpc	r21, r19
    129a:	f4 f4       	brge	.+60     	; 0x12d8 <__vector_25+0xc4>
    129c:	28 ee       	ldi	r18, 0xE8	; 232
    129e:	33 e0       	ldi	r19, 0x03	; 3
    12a0:	60 e7       	ldi	r22, 0x70	; 112
    12a2:	71 e0       	ldi	r23, 0x01	; 1
    12a4:	fb 01       	movw	r30, r22
    12a6:	31 97       	sbiw	r30, 0x01	; 1
    12a8:	f1 f7       	brne	.-4      	; 0x12a6 <__vector_25+0x92>
		{
			// wait 1/10 ms
			_delay_loop_2(((F_CPU) / 4e3) / 10);
			__ticks --;
    12aa:	21 50       	subi	r18, 0x01	; 1
    12ac:	30 40       	sbci	r19, 0x00	; 0
		__ticks = 1;
	else if (__tmp > 65535)
	{
		//	__ticks = requested delay in 1/10 ms
		__ticks = (uint16_t) (__ms * 10.0);
		while(__ticks)
    12ae:	d1 f7       	brne	.-12     	; 0x12a4 <__vector_25+0x90>
		_delay_ms(100);
		sequence_arr[count] = (signed int) data;
    12b0:	44 0f       	add	r20, r20
    12b2:	55 1f       	adc	r21, r21
    12b4:	e0 91 a4 17 	lds	r30, 0x17A4
    12b8:	f0 91 a5 17 	lds	r31, 0x17A5
    12bc:	e4 0f       	add	r30, r20
    12be:	f5 1f       	adc	r31, r21
    12c0:	80 83       	st	Z, r24
    12c2:	11 82       	std	Z+1, r1	; 0x01
		count++;
    12c4:	80 91 1f 03 	lds	r24, 0x031F
    12c8:	90 91 20 03 	lds	r25, 0x0320
    12cc:	01 96       	adiw	r24, 0x01	; 1
    12ce:	90 93 20 03 	sts	0x0320, r25
    12d2:	80 93 1f 03 	sts	0x031F, r24
    12d6:	07 c0       	rjmp	.+14     	; 0x12e6 <__vector_25+0xd2>
	}

	else if (count > arr_size){
    12d8:	24 17       	cp	r18, r20
    12da:	35 07       	cpc	r19, r21
    12dc:	24 f4       	brge	.+8      	; 0x12e6 <__vector_25+0xd2>
		Counter = (signed int) data;
    12de:	80 93 48 04 	sts	0x0448, r24
    12e2:	10 92 49 04 	sts	0x0449, r1
	}
}
    12e6:	ff 91       	pop	r31
    12e8:	ef 91       	pop	r30
    12ea:	bf 91       	pop	r27
    12ec:	af 91       	pop	r26
    12ee:	9f 91       	pop	r25
    12f0:	8f 91       	pop	r24
    12f2:	7f 91       	pop	r23
    12f4:	6f 91       	pop	r22
    12f6:	5f 91       	pop	r21
    12f8:	4f 91       	pop	r20
    12fa:	3f 91       	pop	r19
    12fc:	2f 91       	pop	r18
    12fe:	0f 90       	pop	r0
    1300:	0b be       	out	0x3b, r0	; 59
    1302:	0f 90       	pop	r0
    1304:	0f be       	out	0x3f, r0	; 63
    1306:	0f 90       	pop	r0
    1308:	1f 90       	pop	r1
    130a:	18 95       	reti

0000130c <mapRun>:
	*Output: 0 on successful completion
	*Logic: Given a array of nodes, executes dStar to find the best path
			to touch all the nodes and follows it.
*/
int* mapRun(signed int angle[], int Size_)
{
    130c:	8f 92       	push	r8
    130e:	9f 92       	push	r9
    1310:	af 92       	push	r10
    1312:	bf 92       	push	r11
    1314:	df 92       	push	r13
    1316:	ef 92       	push	r14
    1318:	ff 92       	push	r15
    131a:	0f 93       	push	r16
    131c:	1f 93       	push	r17
    131e:	cf 93       	push	r28
    1320:	df 93       	push	r29
    1322:	4c 01       	movw	r8, r24
    1324:	5b 01       	movw	r10, r22
	// after dectecting the note bot will turn angle[i] angle
	signed int count = -1;

	int *res = (int*) malloc (3*sizeof(int));		//Holds result
    1326:	86 e0       	ldi	r24, 0x06	; 6
    1328:	90 e0       	ldi	r25, 0x00	; 0
    132a:	0e 94 f7 15 	call	0x2bee	; 0x2bee <malloc>
    132e:	ec 01       	movw	r28, r24
	for (int i = 0; i < 3; i++)
		res[i] = 0;
    1330:	19 82       	std	Y+1, r1	; 0x01
    1332:	18 82       	st	Y, r1
    1334:	1b 82       	std	Y+3, r1	; 0x03
    1336:	1a 82       	std	Y+2, r1	; 0x02
    1338:	1d 82       	std	Y+5, r1	; 0x05
    133a:	1c 82       	std	Y+4, r1	; 0x04
    133c:	ee 24       	eor	r14, r14
    133e:	ea 94       	dec	r14
    1340:	fe 2c       	mov	r15, r14
    1342:	00 e7       	ldi	r16, 0x70	; 112
    1344:	11 e0       	ldi	r17, 0x01	; 1
}

//Function for velocity control
void velocity (unsigned char left_motor, unsigned char right_motor)
{
	OCR5AL = (unsigned char)left_motor;
    1346:	4a ef       	ldi	r20, 0xFA	; 250
    1348:	d4 2e       	mov	r13, r20
    134a:	9f c1       	rjmp	.+830    	; 0x168a <mapRun+0x37e>

	while(count < Size_)
	{
		int flag = 0;

		Front_IR_Sensor = ADC_Conversion(11);    //Getting data of Center IR Proximity Sensor Sensor
    134c:	8b e0       	ldi	r24, 0x0B	; 11
    134e:	0e 94 c4 04 	call	0x988	; 0x988 <ADC_Conversion>
    1352:	80 93 43 04 	sts	0x0443, r24

		// If their an object with in 9 cm range of IR sensor
		// LCD will print "OBSTRACLE DETECTED !"
		// Bot will take an initial right turn to shift from the black line
		// Then bot will take right turn until the center whiteline sensor is on top of black line
		if (Front_IR_Sensor < 90)
    1356:	8a 35       	cpi	r24, 0x5A	; 90
    1358:	08 f0       	brcs	.+2      	; 0x135c <mapRun+0x50>
    135a:	3f c0       	rjmp	.+126    	; 0x13da <mapRun+0xce>
		{
			lcd_cursor(1,1);
    135c:	81 e0       	ldi	r24, 0x01	; 1
    135e:	90 e0       	ldi	r25, 0x00	; 0
    1360:	61 e0       	ldi	r22, 0x01	; 1
    1362:	70 e0       	ldi	r23, 0x00	; 0
    1364:	0e 94 50 07 	call	0xea0	; 0xea0 <lcd_cursor>
			lcd_string("    OBSTRACLE   ");
    1368:	80 e0       	ldi	r24, 0x00	; 0
    136a:	92 e0       	ldi	r25, 0x02	; 2
    136c:	0e 94 43 07 	call	0xe86	; 0xe86 <lcd_string>
			lcd_cursor(2,1);
    1370:	82 e0       	ldi	r24, 0x02	; 2
    1372:	90 e0       	ldi	r25, 0x00	; 0
    1374:	61 e0       	ldi	r22, 0x01	; 1
    1376:	70 e0       	ldi	r23, 0x00	; 0
    1378:	0e 94 50 07 	call	0xea0	; 0xea0 <lcd_cursor>
			lcd_string("    DETECTED !  ");
    137c:	81 e1       	ldi	r24, 0x11	; 17
    137e:	92 e0       	ldi	r25, 0x02	; 2
    1380:	0e 94 43 07 	call	0xe86	; 0xe86 <lcd_string>
void motion_set (unsigned char Direction)
{
 unsigned char PortARestore = 0;

 Direction &= 0x0F; 		// removing upper nibbel for the protection
 PortARestore = PORTA; 		// reading the PORTA original status
    1384:	82 b1       	in	r24, 0x02	; 2
 PortARestore &= 0xF0; 		// making lower direction nibbel to 0
    1386:	80 7f       	andi	r24, 0xF0	; 240
 PortARestore |= Direction; // adding lower nibbel for forward command and restoring the PORTA status
    1388:	8a 60       	ori	r24, 0x0A	; 10
 PORTA = PortARestore; 		// executing the command
    138a:	82 b9       	out	0x02, r24	; 2
    138c:	88 eb       	ldi	r24, 0xB8	; 184
    138e:	9b e0       	ldi	r25, 0x0B	; 11
    1390:	f8 01       	movw	r30, r16
    1392:	31 97       	sbiw	r30, 0x01	; 1
    1394:	f1 f7       	brne	.-4      	; 0x1392 <mapRun+0x86>
		{
			// wait 1/10 ms
			_delay_loop_2(((F_CPU) / 4e3) / 10);
			__ticks --;
    1396:	01 97       	sbiw	r24, 0x01	; 1
		__ticks = 1;
	else if (__tmp > 65535)
	{
		//	__ticks = requested delay in 1/10 ms
		__ticks = (uint16_t) (__ms * 10.0);
		while(__ticks)
    1398:	d9 f7       	brne	.-10     	; 0x1390 <mapRun+0x84>
void motion_set (unsigned char Direction)
{
 unsigned char PortARestore = 0;

 Direction &= 0x0F; 		// removing upper nibbel for the protection
 PortARestore = PORTA; 		// reading the PORTA original status
    139a:	82 b1       	in	r24, 0x02	; 2
 PortARestore &= 0xF0; 		// making lower direction nibbel to 0
    139c:	80 7f       	andi	r24, 0xF0	; 240
 PortARestore |= Direction; // adding lower nibbel for forward command and restoring the PORTA status
    139e:	89 60       	ori	r24, 0x09	; 9
 PORTA = PortARestore; 		// executing the command
    13a0:	82 b9       	out	0x02, r24	; 2
    13a2:	80 ed       	ldi	r24, 0xD0	; 208
    13a4:	97 e0       	ldi	r25, 0x07	; 7
    13a6:	f8 01       	movw	r30, r16
    13a8:	31 97       	sbiw	r30, 0x01	; 1
    13aa:	f1 f7       	brne	.-4      	; 0x13a8 <mapRun+0x9c>
		{
			// wait 1/10 ms
			_delay_loop_2(((F_CPU) / 4e3) / 10);
			__ticks --;
    13ac:	01 97       	sbiw	r24, 0x01	; 1
		__ticks = 1;
	else if (__tmp > 65535)
	{
		//	__ticks = requested delay in 1/10 ms
		__ticks = (uint16_t) (__ms * 10.0);
		while(__ticks)
    13ae:	d9 f7       	brne	.-10     	; 0x13a6 <mapRun+0x9a>
void motion_set (unsigned char Direction)
{
 unsigned char PortARestore = 0;

 Direction &= 0x0F; 		// removing upper nibbel for the protection
 PortARestore = PORTA; 		// reading the PORTA original status
    13b0:	82 b1       	in	r24, 0x02	; 2
 PortARestore &= 0xF0; 		// making lower direction nibbel to 0
    13b2:	80 7f       	andi	r24, 0xF0	; 240
 PortARestore |= Direction; // adding lower nibbel for forward command and restoring the PORTA status
    13b4:	8a 60       	ori	r24, 0x0A	; 10
 PORTA = PortARestore; 		// executing the command
    13b6:	82 b9       	out	0x02, r24	; 2
	        back();
	        _delay_ms(200);
	        do
	        {
	          right();
	          Center_white_line = ADC_Conversion(2);
    13b8:	82 e0       	ldi	r24, 0x02	; 2
    13ba:	0e 94 c4 04 	call	0x988	; 0x988 <ADC_Conversion>
    13be:	80 93 3a 04 	sts	0x043A, r24
	        }
	        while (Center_white_line < 110);
    13c2:	8e 36       	cpi	r24, 0x6E	; 110
    13c4:	a8 f3       	brcs	.-22     	; 0x13b0 <mapRun+0xa4>
void motion_set (unsigned char Direction)
{
 unsigned char PortARestore = 0;

 Direction &= 0x0F; 		// removing upper nibbel for the protection
 PortARestore = PORTA; 		// reading the PORTA original status
    13c6:	82 b1       	in	r24, 0x02	; 2
 PortARestore &= 0xF0; 		// making lower direction nibbel to 0
    13c8:	80 7f       	andi	r24, 0xF0	; 240
 PortARestore |= Direction; // adding lower nibbel for forward command and restoring the PORTA status
 PORTA = PortARestore; 		// executing the command
    13ca:	82 b9       	out	0x02, r24	; 2
    13cc:	88 ee       	ldi	r24, 0xE8	; 232
    13ce:	93 e0       	ldi	r25, 0x03	; 3
    13d0:	f8 01       	movw	r30, r16
    13d2:	31 97       	sbiw	r30, 0x01	; 1
    13d4:	f1 f7       	brne	.-4      	; 0x13d2 <mapRun+0xc6>
		{
			// wait 1/10 ms
			_delay_loop_2(((F_CPU) / 4e3) / 10);
			__ticks --;
    13d6:	01 97       	sbiw	r24, 0x01	; 1
		__ticks = 1;
	else if (__tmp > 65535)
	{
		//	__ticks = requested delay in 1/10 ms
		__ticks = (uint16_t) (__ms * 10.0);
		while(__ticks)
    13d8:	d9 f7       	brne	.-10     	; 0x13d0 <mapRun+0xc4>
			//return res;
		}

		// If center center plus left or right sensor detects the black line
		// The bot is over a node
		if ((senser_value_C > 50) && (senser_value_L > 50) || (senser_value_C > 50) && (senser_value_R > 50))
    13da:	80 91 0c 17 	lds	r24, 0x170C
    13de:	90 91 0d 17 	lds	r25, 0x170D
    13e2:	c3 97       	sbiw	r24, 0x33	; 51
    13e4:	0c f4       	brge	.+2      	; 0x13e8 <mapRun+0xdc>
    13e6:	4f c1       	rjmp	.+670    	; 0x1686 <mapRun+0x37a>
    13e8:	80 91 9f 17 	lds	r24, 0x179F
    13ec:	90 91 a0 17 	lds	r25, 0x17A0
    13f0:	c3 97       	sbiw	r24, 0x33	; 51
    13f2:	3c f4       	brge	.+14     	; 0x1402 <mapRun+0xf6>
    13f4:	80 91 d0 17 	lds	r24, 0x17D0
    13f8:	90 91 d1 17 	lds	r25, 0x17D1
    13fc:	c3 97       	sbiw	r24, 0x33	; 51
    13fe:	0c f4       	brge	.+2      	; 0x1402 <mapRun+0xf6>
    1400:	42 c1       	rjmp	.+644    	; 0x1686 <mapRun+0x37a>
		{
			lcd_cursor(2,1);
    1402:	82 e0       	ldi	r24, 0x02	; 2
    1404:	90 e0       	ldi	r25, 0x00	; 0
    1406:	61 e0       	ldi	r22, 0x01	; 1
    1408:	70 e0       	ldi	r23, 0x00	; 0
    140a:	0e 94 50 07 	call	0xea0	; 0xea0 <lcd_cursor>
			lcd_string("NOTE DETECTED!!!");
    140e:	82 e2       	ldi	r24, 0x22	; 34
    1410:	92 e0       	ldi	r25, 0x02	; 2
    1412:	0e 94 43 07 	call	0xe86	; 0xe86 <lcd_string>
			
			count++;
    1416:	08 94       	sec
    1418:	e1 1c       	adc	r14, r1
    141a:	f1 1c       	adc	r15, r1
void motion_set (unsigned char Direction)
{
 unsigned char PortARestore = 0;

 Direction &= 0x0F; 		// removing upper nibbel for the protection
 PortARestore = PORTA; 		// reading the PORTA original status
    141c:	82 b1       	in	r24, 0x02	; 2
 PortARestore &= 0xF0; 		// making lower direction nibbel to 0
    141e:	80 7f       	andi	r24, 0xF0	; 240
 PortARestore |= Direction; // adding lower nibbel for forward command and restoring the PORTA status
 PORTA = PortARestore; 		// executing the command
    1420:	82 b9       	out	0x02, r24	; 2

			//if angle[i] is 60 the bot has to take a 60 degree turn
			// bot will move 6 cm ahead and 30 degree left to skip the current black line
			// then it will rotate left until it finds another black line
			// lcd will print "60 degree success"
			if (angle[count] == 60 || angle[count] == -300)
    1422:	f7 01       	movw	r30, r14
    1424:	ee 0f       	add	r30, r30
    1426:	ff 1f       	adc	r31, r31
    1428:	e8 0d       	add	r30, r8
    142a:	f9 1d       	adc	r31, r9
    142c:	01 90       	ld	r0, Z+
    142e:	f0 81       	ld	r31, Z
    1430:	e0 2d       	mov	r30, r0
    1432:	ec 33       	cpi	r30, 0x3C	; 60
    1434:	f1 05       	cpc	r31, r1
    1436:	21 f0       	breq	.+8      	; 0x1440 <mapRun+0x134>
    1438:	8e ef       	ldi	r24, 0xFE	; 254
    143a:	e4 3d       	cpi	r30, 0xD4	; 212
    143c:	f8 07       	cpc	r31, r24
    143e:	71 f5       	brne	.+92     	; 0x149c <mapRun+0x190>
}

//Function for velocity control
void velocity (unsigned char left_motor, unsigned char right_motor)
{
	OCR5AL = (unsigned char)left_motor;
    1440:	d0 92 28 01 	sts	0x0128, r13
	OCR5BL = (unsigned char)right_motor;
    1444:	d0 92 2a 01 	sts	0x012A, r13
			// then it will rotate left until it finds another black line
			// lcd will print "60 degree success"
			if (angle[count] == 60 || angle[count] == -300)
			{
				velocity(250,250);
				forward_mm(60);
    1448:	8c e3       	ldi	r24, 0x3C	; 60
    144a:	90 e0       	ldi	r25, 0x00	; 0
    144c:	0e 94 ae 06 	call	0xd5c	; 0xd5c <forward_mm>
    1450:	88 ee       	ldi	r24, 0xE8	; 232
    1452:	93 e0       	ldi	r25, 0x03	; 3
    1454:	f8 01       	movw	r30, r16
    1456:	31 97       	sbiw	r30, 0x01	; 1
    1458:	f1 f7       	brne	.-4      	; 0x1456 <mapRun+0x14a>
		{
			// wait 1/10 ms
			_delay_loop_2(((F_CPU) / 4e3) / 10);
			__ticks --;
    145a:	01 97       	sbiw	r24, 0x01	; 1
		__ticks = 1;
	else if (__tmp > 65535)
	{
		//	__ticks = requested delay in 1/10 ms
		__ticks = (uint16_t) (__ms * 10.0);
		while(__ticks)
    145c:	d9 f7       	brne	.-10     	; 0x1454 <mapRun+0x148>
		        _delay_ms(100);

		        left_degrees(30);
    145e:	8e e1       	ldi	r24, 0x1E	; 30
    1460:	90 e0       	ldi	r25, 0x00	; 0
    1462:	0e 94 5f 05 	call	0xabe	; 0xabe <left_degrees>
void motion_set (unsigned char Direction)
{
 unsigned char PortARestore = 0;

 Direction &= 0x0F; 		// removing upper nibbel for the protection
 PortARestore = PORTA; 		// reading the PORTA original status
    1466:	82 b1       	in	r24, 0x02	; 2
 PortARestore &= 0xF0; 		// making lower direction nibbel to 0
    1468:	80 7f       	andi	r24, 0xF0	; 240
 PortARestore |= Direction; // adding lower nibbel for forward command and restoring the PORTA status
    146a:	85 60       	ori	r24, 0x05	; 5
 PORTA = PortARestore; 		// executing the command
    146c:	82 b9       	out	0x02, r24	; 2

		        left_degrees(30);
		        do
		        {
		          left();
		          senser_value_C = ADC_Conversion(2);
    146e:	82 e0       	ldi	r24, 0x02	; 2
    1470:	0e 94 c4 04 	call	0x988	; 0x988 <ADC_Conversion>
    1474:	90 e0       	ldi	r25, 0x00	; 0
    1476:	90 93 0d 17 	sts	0x170D, r25
    147a:	80 93 0c 17 	sts	0x170C, r24
		        }
		        while (senser_value_C < 110);
    147e:	8e 36       	cpi	r24, 0x6E	; 110
    1480:	91 05       	cpc	r25, r1
    1482:	8c f3       	brlt	.-30     	; 0x1466 <mapRun+0x15a>
void motion_set (unsigned char Direction)
{
 unsigned char PortARestore = 0;

 Direction &= 0x0F; 		// removing upper nibbel for the protection
 PortARestore = PORTA; 		// reading the PORTA original status
    1484:	82 b1       	in	r24, 0x02	; 2
 PortARestore &= 0xF0; 		// making lower direction nibbel to 0
    1486:	80 7f       	andi	r24, 0xF0	; 240
 PortARestore |= Direction; // adding lower nibbel for forward command and restoring the PORTA status
 PORTA = PortARestore; 		// executing the command
    1488:	82 b9       	out	0x02, r24	; 2
		          left();
		          senser_value_C = ADC_Conversion(2);
		        }
		        while (senser_value_C < 110);
		        stop();
		        lcd_cursor(1,1);
    148a:	81 e0       	ldi	r24, 0x01	; 1
    148c:	90 e0       	ldi	r25, 0x00	; 0
    148e:	61 e0       	ldi	r22, 0x01	; 1
    1490:	70 e0       	ldi	r23, 0x00	; 0
    1492:	0e 94 50 07 	call	0xea0	; 0xea0 <lcd_cursor>
		        lcd_string("60 degree succes");
    1496:	83 e3       	ldi	r24, 0x33	; 51
    1498:	92 e0       	ldi	r25, 0x02	; 2
    149a:	3b c0       	rjmp	.+118    	; 0x1512 <mapRun+0x206>
			}
			//if angle[i] is 120 the bot has to take a 120 degree turn
			// bot will move 1.5 cm ahead and 30 degree back left to skip the current black line
			// then it will rotate soft left until it finds another black line
			// lcd will print "120 degree success"
			else if (angle[count] == 120 || angle[count] == -240)
    149c:	e8 37       	cpi	r30, 0x78	; 120
    149e:	f1 05       	cpc	r31, r1
    14a0:	21 f0       	breq	.+8      	; 0x14aa <mapRun+0x19e>
    14a2:	8f ef       	ldi	r24, 0xFF	; 255
    14a4:	e0 31       	cpi	r30, 0x10	; 16
    14a6:	f8 07       	cpc	r31, r24
    14a8:	b9 f5       	brne	.+110    	; 0x1518 <mapRun+0x20c>
}

//Function for velocity control
void velocity (unsigned char left_motor, unsigned char right_motor)
{
	OCR5AL = (unsigned char)left_motor;
    14aa:	d0 92 28 01 	sts	0x0128, r13
	OCR5BL = (unsigned char)right_motor;
    14ae:	d0 92 2a 01 	sts	0x012A, r13
void motion_set (unsigned char Direction)
{
 unsigned char PortARestore = 0;

 Direction &= 0x0F; 		// removing upper nibbel for the protection
 PortARestore = PORTA; 		// reading the PORTA original status
    14b2:	82 b1       	in	r24, 0x02	; 2
 PortARestore &= 0xF0; 		// making lower direction nibbel to 0
    14b4:	80 7f       	andi	r24, 0xF0	; 240
 PortARestore |= Direction; // adding lower nibbel for forward command and restoring the PORTA status
    14b6:	86 60       	ori	r24, 0x06	; 6
 PORTA = PortARestore; 		// executing the command
    14b8:	82 b9       	out	0x02, r24	; 2
    14ba:	8c ea       	ldi	r24, 0xAC	; 172
    14bc:	9d e0       	ldi	r25, 0x0D	; 13
    14be:	f8 01       	movw	r30, r16
    14c0:	31 97       	sbiw	r30, 0x01	; 1
    14c2:	f1 f7       	brne	.-4      	; 0x14c0 <mapRun+0x1b4>
		{
			// wait 1/10 ms
			_delay_loop_2(((F_CPU) / 4e3) / 10);
			__ticks --;
    14c4:	01 97       	sbiw	r24, 0x01	; 1
		__ticks = 1;
	else if (__tmp > 65535)
	{
		//	__ticks = requested delay in 1/10 ms
		__ticks = (uint16_t) (__ms * 10.0);
		while(__ticks)
    14c6:	d9 f7       	brne	.-10     	; 0x14be <mapRun+0x1b2>
			else if (angle[count] == 120 || angle[count] == -240)
			{
				velocity(250,250);
				forward();
		        _delay_ms(350);
		        left_degrees(90);
    14c8:	8a e5       	ldi	r24, 0x5A	; 90
    14ca:	90 e0       	ldi	r25, 0x00	; 0
    14cc:	0e 94 5f 05 	call	0xabe	; 0xabe <left_degrees>
    14d0:	88 e8       	ldi	r24, 0x88	; 136
    14d2:	93 e1       	ldi	r25, 0x13	; 19
    14d4:	f8 01       	movw	r30, r16
    14d6:	31 97       	sbiw	r30, 0x01	; 1
    14d8:	f1 f7       	brne	.-4      	; 0x14d6 <mapRun+0x1ca>
		{
			// wait 1/10 ms
			_delay_loop_2(((F_CPU) / 4e3) / 10);
			__ticks --;
    14da:	01 97       	sbiw	r24, 0x01	; 1
		__ticks = 1;
	else if (__tmp > 65535)
	{
		//	__ticks = requested delay in 1/10 ms
		__ticks = (uint16_t) (__ms * 10.0);
		while(__ticks)
    14dc:	d9 f7       	brne	.-10     	; 0x14d4 <mapRun+0x1c8>
void motion_set (unsigned char Direction)
{
 unsigned char PortARestore = 0;

 Direction &= 0x0F; 		// removing upper nibbel for the protection
 PortARestore = PORTA; 		// reading the PORTA original status
    14de:	82 b1       	in	r24, 0x02	; 2
 PortARestore &= 0xF0; 		// making lower direction nibbel to 0
    14e0:	80 7f       	andi	r24, 0xF0	; 240
 PortARestore |= Direction; // adding lower nibbel for forward command and restoring the PORTA status
    14e2:	85 60       	ori	r24, 0x05	; 5
 PORTA = PortARestore; 		// executing the command
    14e4:	82 b9       	out	0x02, r24	; 2
		        left_degrees(90);
		        _delay_ms(500);
		        do
		        {
		          left();
		          senser_value_C = ADC_Conversion(2);
    14e6:	82 e0       	ldi	r24, 0x02	; 2
    14e8:	0e 94 c4 04 	call	0x988	; 0x988 <ADC_Conversion>
    14ec:	90 e0       	ldi	r25, 0x00	; 0
    14ee:	90 93 0d 17 	sts	0x170D, r25
    14f2:	80 93 0c 17 	sts	0x170C, r24
		        }
		        while (senser_value_C < 110);
    14f6:	8e 36       	cpi	r24, 0x6E	; 110
    14f8:	91 05       	cpc	r25, r1
    14fa:	8c f3       	brlt	.-30     	; 0x14de <mapRun+0x1d2>
void motion_set (unsigned char Direction)
{
 unsigned char PortARestore = 0;

 Direction &= 0x0F; 		// removing upper nibbel for the protection
 PortARestore = PORTA; 		// reading the PORTA original status
    14fc:	82 b1       	in	r24, 0x02	; 2
 PortARestore &= 0xF0; 		// making lower direction nibbel to 0
    14fe:	80 7f       	andi	r24, 0xF0	; 240
 PortARestore |= Direction; // adding lower nibbel for forward command and restoring the PORTA status
 PORTA = PortARestore; 		// executing the command
    1500:	82 b9       	out	0x02, r24	; 2
		          left();
		          senser_value_C = ADC_Conversion(2);
		        }
		        while (senser_value_C < 110);
		        stop();
		        lcd_cursor(1,1);
    1502:	81 e0       	ldi	r24, 0x01	; 1
    1504:	90 e0       	ldi	r25, 0x00	; 0
    1506:	61 e0       	ldi	r22, 0x01	; 1
    1508:	70 e0       	ldi	r23, 0x00	; 0
    150a:	0e 94 50 07 	call	0xea0	; 0xea0 <lcd_cursor>
		        lcd_string("120 degree succes");
    150e:	84 e4       	ldi	r24, 0x44	; 68
    1510:	92 e0       	ldi	r25, 0x02	; 2
    1512:	0e 94 43 07 	call	0xe86	; 0xe86 <lcd_string>
    1516:	a0 c0       	rjmp	.+320    	; 0x1658 <mapRun+0x34c>
			}
			//if angle[i] is -60 the bot has to take a -60 degree turn
			// bot will move 6 cm ahead and 30 degree right to skip the current black line
			// then it will rotate rihgt until it finds another black line
			// lcd will print "-60 degree success"
			else if (angle[count] == -60 || angle[count] == 300)
    1518:	8f ef       	ldi	r24, 0xFF	; 255
    151a:	e4 3c       	cpi	r30, 0xC4	; 196
    151c:	f8 07       	cpc	r31, r24
    151e:	21 f0       	breq	.+8      	; 0x1528 <mapRun+0x21c>
    1520:	81 e0       	ldi	r24, 0x01	; 1
    1522:	ec 32       	cpi	r30, 0x2C	; 44
    1524:	f8 07       	cpc	r31, r24
    1526:	71 f5       	brne	.+92     	; 0x1584 <mapRun+0x278>
}

//Function for velocity control
void velocity (unsigned char left_motor, unsigned char right_motor)
{
	OCR5AL = (unsigned char)left_motor;
    1528:	d0 92 28 01 	sts	0x0128, r13
	OCR5BL = (unsigned char)right_motor;
    152c:	d0 92 2a 01 	sts	0x012A, r13
			// then it will rotate rihgt until it finds another black line
			// lcd will print "-60 degree success"
			else if (angle[count] == -60 || angle[count] == 300)
			{
				velocity(250,250);
				forward_mm(60);
    1530:	8c e3       	ldi	r24, 0x3C	; 60
    1532:	90 e0       	ldi	r25, 0x00	; 0
    1534:	0e 94 ae 06 	call	0xd5c	; 0xd5c <forward_mm>
    1538:	88 ee       	ldi	r24, 0xE8	; 232
    153a:	93 e0       	ldi	r25, 0x03	; 3
    153c:	f8 01       	movw	r30, r16
    153e:	31 97       	sbiw	r30, 0x01	; 1
    1540:	f1 f7       	brne	.-4      	; 0x153e <mapRun+0x232>
		{
			// wait 1/10 ms
			_delay_loop_2(((F_CPU) / 4e3) / 10);
			__ticks --;
    1542:	01 97       	sbiw	r24, 0x01	; 1
		__ticks = 1;
	else if (__tmp > 65535)
	{
		//	__ticks = requested delay in 1/10 ms
		__ticks = (uint16_t) (__ms * 10.0);
		while(__ticks)
    1544:	d9 f7       	brne	.-10     	; 0x153c <mapRun+0x230>
		        _delay_ms(100);
		        right_degrees(30);
    1546:	8e e1       	ldi	r24, 0x1E	; 30
    1548:	90 e0       	ldi	r25, 0x00	; 0
    154a:	0e 94 66 05 	call	0xacc	; 0xacc <right_degrees>
void motion_set (unsigned char Direction)
{
 unsigned char PortARestore = 0;

 Direction &= 0x0F; 		// removing upper nibbel for the protection
 PortARestore = PORTA; 		// reading the PORTA original status
    154e:	82 b1       	in	r24, 0x02	; 2
 PortARestore &= 0xF0; 		// making lower direction nibbel to 0
    1550:	80 7f       	andi	r24, 0xF0	; 240
 PortARestore |= Direction; // adding lower nibbel for forward command and restoring the PORTA status
    1552:	8a 60       	ori	r24, 0x0A	; 10
 PORTA = PortARestore; 		// executing the command
    1554:	82 b9       	out	0x02, r24	; 2
		        _delay_ms(100);
		        right_degrees(30);
		        do
		        {
		          right();
		          senser_value_C = ADC_Conversion(2);
    1556:	82 e0       	ldi	r24, 0x02	; 2
    1558:	0e 94 c4 04 	call	0x988	; 0x988 <ADC_Conversion>
    155c:	90 e0       	ldi	r25, 0x00	; 0
    155e:	90 93 0d 17 	sts	0x170D, r25
    1562:	80 93 0c 17 	sts	0x170C, r24
		        }
		        while (senser_value_C < 110);
    1566:	8e 36       	cpi	r24, 0x6E	; 110
    1568:	91 05       	cpc	r25, r1
    156a:	8c f3       	brlt	.-30     	; 0x154e <mapRun+0x242>
void motion_set (unsigned char Direction)
{
 unsigned char PortARestore = 0;

 Direction &= 0x0F; 		// removing upper nibbel for the protection
 PortARestore = PORTA; 		// reading the PORTA original status
    156c:	82 b1       	in	r24, 0x02	; 2
 PortARestore &= 0xF0; 		// making lower direction nibbel to 0
    156e:	80 7f       	andi	r24, 0xF0	; 240
 PortARestore |= Direction; // adding lower nibbel for forward command and restoring the PORTA status
 PORTA = PortARestore; 		// executing the command
    1570:	82 b9       	out	0x02, r24	; 2
		          right();
		          senser_value_C = ADC_Conversion(2);
		        }
		        while (senser_value_C < 110);
		        stop();
		        lcd_cursor(1,1);
    1572:	81 e0       	ldi	r24, 0x01	; 1
    1574:	90 e0       	ldi	r25, 0x00	; 0
    1576:	61 e0       	ldi	r22, 0x01	; 1
    1578:	70 e0       	ldi	r23, 0x00	; 0
    157a:	0e 94 50 07 	call	0xea0	; 0xea0 <lcd_cursor>
		        lcd_string("-60 degree suces");
    157e:	86 e5       	ldi	r24, 0x56	; 86
    1580:	92 e0       	ldi	r25, 0x02	; 2
    1582:	c7 cf       	rjmp	.-114    	; 0x1512 <mapRun+0x206>
			}
			//if angle[i] is -120 the bot has to take a -120 degree turn
			// bot will move 1.5 cm ahead and 30 degree back right to skip the current black line
			// then it will rotate soft right until it finds another black line
			// lcd will print "-120 degree success"
			else if (angle[count] == -120 || angle[count] == 240)
    1584:	8f ef       	ldi	r24, 0xFF	; 255
    1586:	e8 38       	cpi	r30, 0x88	; 136
    1588:	f8 07       	cpc	r31, r24
    158a:	19 f0       	breq	.+6      	; 0x1592 <mapRun+0x286>
    158c:	e0 3f       	cpi	r30, 0xF0	; 240
    158e:	f1 05       	cpc	r31, r1
    1590:	51 f5       	brne	.+84     	; 0x15e6 <mapRun+0x2da>
}

//Function for velocity control
void velocity (unsigned char left_motor, unsigned char right_motor)
{
	OCR5AL = (unsigned char)left_motor;
    1592:	d0 92 28 01 	sts	0x0128, r13
	OCR5BL = (unsigned char)right_motor;
    1596:	d0 92 2a 01 	sts	0x012A, r13
void motion_set (unsigned char Direction)
{
 unsigned char PortARestore = 0;

 Direction &= 0x0F; 		// removing upper nibbel for the protection
 PortARestore = PORTA; 		// reading the PORTA original status
    159a:	82 b1       	in	r24, 0x02	; 2
 PortARestore &= 0xF0; 		// making lower direction nibbel to 0
    159c:	80 7f       	andi	r24, 0xF0	; 240
 PortARestore |= Direction; // adding lower nibbel for forward command and restoring the PORTA status
    159e:	86 60       	ori	r24, 0x06	; 6
 PORTA = PortARestore; 		// executing the command
    15a0:	82 b9       	out	0x02, r24	; 2
    15a2:	8c ea       	ldi	r24, 0xAC	; 172
    15a4:	9d e0       	ldi	r25, 0x0D	; 13
    15a6:	f8 01       	movw	r30, r16
    15a8:	31 97       	sbiw	r30, 0x01	; 1
    15aa:	f1 f7       	brne	.-4      	; 0x15a8 <mapRun+0x29c>
		{
			// wait 1/10 ms
			_delay_loop_2(((F_CPU) / 4e3) / 10);
			__ticks --;
    15ac:	01 97       	sbiw	r24, 0x01	; 1
		__ticks = 1;
	else if (__tmp > 65535)
	{
		//	__ticks = requested delay in 1/10 ms
		__ticks = (uint16_t) (__ms * 10.0);
		while(__ticks)
    15ae:	d9 f7       	brne	.-10     	; 0x15a6 <mapRun+0x29a>
			else if (angle[count] == -120 || angle[count] == 240)
			{
				velocity(250,250);
				forward();
		        _delay_ms(350);
		        right_degrees(90);
    15b0:	8a e5       	ldi	r24, 0x5A	; 90
    15b2:	90 e0       	ldi	r25, 0x00	; 0
    15b4:	0e 94 66 05 	call	0xacc	; 0xacc <right_degrees>
    15b8:	88 e8       	ldi	r24, 0x88	; 136
    15ba:	93 e1       	ldi	r25, 0x13	; 19
    15bc:	f8 01       	movw	r30, r16
    15be:	31 97       	sbiw	r30, 0x01	; 1
    15c0:	f1 f7       	brne	.-4      	; 0x15be <mapRun+0x2b2>
		{
			// wait 1/10 ms
			_delay_loop_2(((F_CPU) / 4e3) / 10);
			__ticks --;
    15c2:	01 97       	sbiw	r24, 0x01	; 1
		__ticks = 1;
	else if (__tmp > 65535)
	{
		//	__ticks = requested delay in 1/10 ms
		__ticks = (uint16_t) (__ms * 10.0);
		while(__ticks)
    15c4:	d9 f7       	brne	.-10     	; 0x15bc <mapRun+0x2b0>
void motion_set (unsigned char Direction)
{
 unsigned char PortARestore = 0;

 Direction &= 0x0F; 		// removing upper nibbel for the protection
 PortARestore = PORTA; 		// reading the PORTA original status
    15c6:	82 b1       	in	r24, 0x02	; 2
 PortARestore &= 0xF0; 		// making lower direction nibbel to 0
    15c8:	80 7f       	andi	r24, 0xF0	; 240
 PortARestore |= Direction; // adding lower nibbel for forward command and restoring the PORTA status
    15ca:	8a 60       	ori	r24, 0x0A	; 10
 PORTA = PortARestore; 		// executing the command
    15cc:	82 b9       	out	0x02, r24	; 2
		        right_degrees(90);
		        _delay_ms(500);
		        do
		        {
		          right();
		          senser_value_C = ADC_Conversion(2);
    15ce:	82 e0       	ldi	r24, 0x02	; 2
    15d0:	0e 94 c4 04 	call	0x988	; 0x988 <ADC_Conversion>
    15d4:	90 e0       	ldi	r25, 0x00	; 0
    15d6:	90 93 0d 17 	sts	0x170D, r25
    15da:	80 93 0c 17 	sts	0x170C, r24
		        }
		        while (senser_value_C < 110);
    15de:	8e 36       	cpi	r24, 0x6E	; 110
    15e0:	91 05       	cpc	r25, r1
    15e2:	8c f3       	brlt	.-30     	; 0x15c6 <mapRun+0x2ba>
    15e4:	8b cf       	rjmp	.-234    	; 0x14fc <mapRun+0x1f0>
		        lcd_string("120 degree succes");
			}
			//if angle[i] is 180 the bot has to take a 190 degree turn
			// bot will move left for 500 milliseconds to skip the current black line
			// then it will rotate left until it finds another black line
			else if (angle[count] == 180 || angle[count] == -180)
    15e6:	e4 3b       	cpi	r30, 0xB4	; 180
    15e8:	f1 05       	cpc	r31, r1
    15ea:	19 f0       	breq	.+6      	; 0x15f2 <mapRun+0x2e6>
    15ec:	ec 54       	subi	r30, 0x4C	; 76
    15ee:	ff 4f       	sbci	r31, 0xFF	; 255
    15f0:	99 f5       	brne	.+102    	; 0x1658 <mapRun+0x34c>
}

//Function for velocity control
void velocity (unsigned char left_motor, unsigned char right_motor)
{
	OCR5AL = (unsigned char)left_motor;
    15f2:	d0 92 28 01 	sts	0x0128, r13
	OCR5BL = (unsigned char)right_motor;
    15f6:	d0 92 2a 01 	sts	0x012A, r13
void motion_set (unsigned char Direction)
{
 unsigned char PortARestore = 0;

 Direction &= 0x0F; 		// removing upper nibbel for the protection
 PortARestore = PORTA; 		// reading the PORTA original status
    15fa:	82 b1       	in	r24, 0x02	; 2
 PortARestore &= 0xF0; 		// making lower direction nibbel to 0
    15fc:	80 7f       	andi	r24, 0xF0	; 240
 PortARestore |= Direction; // adding lower nibbel for forward command and restoring the PORTA status
    15fe:	86 60       	ori	r24, 0x06	; 6
 PORTA = PortARestore; 		// executing the command
    1600:	82 b9       	out	0x02, r24	; 2
void motion_set (unsigned char Direction)
{
 unsigned char PortARestore = 0;

 Direction &= 0x0F; 		// removing upper nibbel for the protection
 PortARestore = PORTA; 		// reading the PORTA original status
    1602:	82 b1       	in	r24, 0x02	; 2
 PortARestore &= 0xF0; 		// making lower direction nibbel to 0
    1604:	80 7f       	andi	r24, 0xF0	; 240
 PortARestore |= Direction; // adding lower nibbel for forward command and restoring the PORTA status
    1606:	8a 60       	ori	r24, 0x0A	; 10
 PORTA = PortARestore; 		// executing the command
    1608:	82 b9       	out	0x02, r24	; 2
    160a:	88 eb       	ldi	r24, 0xB8	; 184
    160c:	9b e0       	ldi	r25, 0x0B	; 11
    160e:	f8 01       	movw	r30, r16
    1610:	31 97       	sbiw	r30, 0x01	; 1
    1612:	f1 f7       	brne	.-4      	; 0x1610 <mapRun+0x304>
		{
			// wait 1/10 ms
			_delay_loop_2(((F_CPU) / 4e3) / 10);
			__ticks --;
    1614:	01 97       	sbiw	r24, 0x01	; 1
		__ticks = 1;
	else if (__tmp > 65535)
	{
		//	__ticks = requested delay in 1/10 ms
		__ticks = (uint16_t) (__ms * 10.0);
		while(__ticks)
    1616:	d9 f7       	brne	.-10     	; 0x160e <mapRun+0x302>
void motion_set (unsigned char Direction)
{
 unsigned char PortARestore = 0;

 Direction &= 0x0F; 		// removing upper nibbel for the protection
 PortARestore = PORTA; 		// reading the PORTA original status
    1618:	82 b1       	in	r24, 0x02	; 2
 PortARestore &= 0xF0; 		// making lower direction nibbel to 0
    161a:	80 7f       	andi	r24, 0xF0	; 240
 PortARestore |= Direction; // adding lower nibbel for forward command and restoring the PORTA status
    161c:	89 60       	ori	r24, 0x09	; 9
 PORTA = PortARestore; 		// executing the command
    161e:	82 b9       	out	0x02, r24	; 2
    1620:	80 ed       	ldi	r24, 0xD0	; 208
    1622:	97 e0       	ldi	r25, 0x07	; 7
    1624:	f8 01       	movw	r30, r16
    1626:	31 97       	sbiw	r30, 0x01	; 1
    1628:	f1 f7       	brne	.-4      	; 0x1626 <mapRun+0x31a>
		{
			// wait 1/10 ms
			_delay_loop_2(((F_CPU) / 4e3) / 10);
			__ticks --;
    162a:	01 97       	sbiw	r24, 0x01	; 1
		__ticks = 1;
	else if (__tmp > 65535)
	{
		//	__ticks = requested delay in 1/10 ms
		__ticks = (uint16_t) (__ms * 10.0);
		while(__ticks)
    162c:	d9 f7       	brne	.-10     	; 0x1624 <mapRun+0x318>
void motion_set (unsigned char Direction)
{
 unsigned char PortARestore = 0;

 Direction &= 0x0F; 		// removing upper nibbel for the protection
 PortARestore = PORTA; 		// reading the PORTA original status
    162e:	82 b1       	in	r24, 0x02	; 2
 PortARestore &= 0xF0; 		// making lower direction nibbel to 0
    1630:	80 7f       	andi	r24, 0xF0	; 240
 PortARestore |= Direction; // adding lower nibbel for forward command and restoring the PORTA status
    1632:	8a 60       	ori	r24, 0x0A	; 10
 PORTA = PortARestore; 		// executing the command
    1634:	82 b9       	out	0x02, r24	; 2
		        back();
		        _delay_ms(200);
		        do
		        {
		          right();
		          Center_white_line = ADC_Conversion(2);
    1636:	82 e0       	ldi	r24, 0x02	; 2
    1638:	0e 94 c4 04 	call	0x988	; 0x988 <ADC_Conversion>
    163c:	80 93 3a 04 	sts	0x043A, r24
		        }
		        while (Center_white_line < 110);
    1640:	8e 36       	cpi	r24, 0x6E	; 110
    1642:	a8 f3       	brcs	.-22     	; 0x162e <mapRun+0x322>
void motion_set (unsigned char Direction)
{
 unsigned char PortARestore = 0;

 Direction &= 0x0F; 		// removing upper nibbel for the protection
 PortARestore = PORTA; 		// reading the PORTA original status
    1644:	82 b1       	in	r24, 0x02	; 2
 PortARestore &= 0xF0; 		// making lower direction nibbel to 0
    1646:	80 7f       	andi	r24, 0xF0	; 240
 PortARestore |= Direction; // adding lower nibbel for forward command and restoring the PORTA status
 PORTA = PortARestore; 		// executing the command
    1648:	82 b9       	out	0x02, r24	; 2
    164a:	88 ee       	ldi	r24, 0xE8	; 232
    164c:	93 e0       	ldi	r25, 0x03	; 3
    164e:	f8 01       	movw	r30, r16
    1650:	31 97       	sbiw	r30, 0x01	; 1
    1652:	f1 f7       	brne	.-4      	; 0x1650 <mapRun+0x344>
		{
			// wait 1/10 ms
			_delay_loop_2(((F_CPU) / 4e3) / 10);
			__ticks --;
    1654:	01 97       	sbiw	r24, 0x01	; 1
		__ticks = 1;
	else if (__tmp > 65535)
	{
		//	__ticks = requested delay in 1/10 ms
		__ticks = (uint16_t) (__ms * 10.0);
		while(__ticks)
    1656:	d9 f7       	brne	.-10     	; 0x164e <mapRun+0x342>
		        stop();
		        _delay_ms(100);
			}

			// by default lcd will be print "MOVING ON FLEX"
			lcd_cursor(1,1);
    1658:	81 e0       	ldi	r24, 0x01	; 1
    165a:	90 e0       	ldi	r25, 0x00	; 0
    165c:	61 e0       	ldi	r22, 0x01	; 1
    165e:	70 e0       	ldi	r23, 0x00	; 0
    1660:	0e 94 50 07 	call	0xea0	; 0xea0 <lcd_cursor>
			lcd_string("                ");
    1664:	87 e6       	ldi	r24, 0x67	; 103
    1666:	92 e0       	ldi	r25, 0x02	; 2
    1668:	0e 94 43 07 	call	0xe86	; 0xe86 <lcd_string>
			lcd_cursor(2,1);
    166c:	82 e0       	ldi	r24, 0x02	; 2
    166e:	90 e0       	ldi	r25, 0x00	; 0
    1670:	61 e0       	ldi	r22, 0x01	; 1
    1672:	70 e0       	ldi	r23, 0x00	; 0
    1674:	0e 94 50 07 	call	0xea0	; 0xea0 <lcd_cursor>
			lcd_string("MOVING ON FLEX!!");
    1678:	88 e7       	ldi	r24, 0x78	; 120
    167a:	92 e0       	ldi	r25, 0x02	; 2
    167c:	0e 94 43 07 	call	0xe86	; 0xe86 <lcd_string>
		}
		if (count < Size_)
    1680:	ea 14       	cp	r14, r10
    1682:	fb 04       	cpc	r15, r11
    1684:	14 f4       	brge	.+4      	; 0x168a <mapRun+0x37e>
		{
			move();// calling the move function
    1686:	0e 94 cc 05 	call	0xb98	; 0xb98 <move>

	int *res = (int*) malloc (3*sizeof(int));		//Holds result
	for (int i = 0; i < 3; i++)
		res[i] = 0;

	while(count < Size_)
    168a:	ea 14       	cp	r14, r10
    168c:	fb 04       	cpc	r15, r11
    168e:	0c f4       	brge	.+2      	; 0x1692 <mapRun+0x386>
    1690:	5d ce       	rjmp	.-838    	; 0x134c <mapRun+0x40>
			move();// calling the move function
		}
		
	}
	return res;
}
    1692:	ce 01       	movw	r24, r28
    1694:	df 91       	pop	r29
    1696:	cf 91       	pop	r28
    1698:	1f 91       	pop	r17
    169a:	0f 91       	pop	r16
    169c:	ff 90       	pop	r15
    169e:	ef 90       	pop	r14
    16a0:	df 90       	pop	r13
    16a2:	bf 90       	pop	r11
    16a4:	af 90       	pop	r10
    16a6:	9f 90       	pop	r9
    16a8:	8f 90       	pop	r8
    16aa:	08 95       	ret

000016ac <pathFind>:
			the source (where the index of the parent is -1.) In the process,
			it also keeps updating the number of nodes in the path from source
			to the destination.	
	*Example Call: int *path = pathFind (parent, destination, &pathSize);
*/
int* pathFind (int *parent, int destination, int *pathSize) {
    16ac:	cf 92       	push	r12
    16ae:	df 92       	push	r13
    16b0:	ef 92       	push	r14
    16b2:	ff 92       	push	r15
    16b4:	0f 93       	push	r16
    16b6:	1f 93       	push	r17
    16b8:	cf 93       	push	r28
    16ba:	df 93       	push	r29
    16bc:	6c 01       	movw	r12, r24
    16be:	16 2f       	mov	r17, r22
    16c0:	07 2f       	mov	r16, r23
    16c2:	7a 01       	movw	r14, r20
	int *path = (int*) malloc (size*sizeof(int));
    16c4:	82 e6       	ldi	r24, 0x62	; 98
    16c6:	90 e0       	ldi	r25, 0x00	; 0
    16c8:	0e 94 f7 15 	call	0x2bee	; 0x2bee <malloc>
    16cc:	ec 01       	movw	r28, r24
	*pathSize = 1;			//There is at least one element (destination)
    16ce:	21 e0       	ldi	r18, 0x01	; 1
    16d0:	30 e0       	ldi	r19, 0x00	; 0
    16d2:	d7 01       	movw	r26, r14
    16d4:	2d 93       	st	X+, r18
    16d6:	3c 93       	st	X, r19
	int i = destination, j = 1;
	path[0] = destination;
    16d8:	18 83       	st	Y, r17
    16da:	09 83       	std	Y+1, r16	; 0x01
    16dc:	ac 01       	movw	r20, r24
    16de:	21 2f       	mov	r18, r17
    16e0:	30 2f       	mov	r19, r16
    16e2:	c9 01       	movw	r24, r18
    16e4:	e1 e0       	ldi	r30, 0x01	; 1
    16e6:	f0 e0       	ldi	r31, 0x00	; 0
    16e8:	0e c0       	rjmp	.+28     	; 0x1706 <pathFind+0x5a>
	//Creates a path 
	while (parent[i] != -1) {
		(*pathSize)++;
    16ea:	d7 01       	movw	r26, r14
    16ec:	8d 91       	ld	r24, X+
    16ee:	9c 91       	ld	r25, X
    16f0:	11 97       	sbiw	r26, 0x01	; 1
    16f2:	01 96       	adiw	r24, 0x01	; 1
    16f4:	8d 93       	st	X+, r24
    16f6:	9c 93       	st	X, r25
		path[j++] = parent[i];
    16f8:	db 01       	movw	r26, r22
    16fa:	8d 91       	ld	r24, X+
    16fc:	9c 91       	ld	r25, X
    16fe:	da 01       	movw	r26, r20
    1700:	8d 93       	st	X+, r24
    1702:	9c 93       	st	X, r25
    1704:	31 96       	adiw	r30, 0x01	; 1
	int *path = (int*) malloc (size*sizeof(int));
	*pathSize = 1;			//There is at least one element (destination)
	int i = destination, j = 1;
	path[0] = destination;
	//Creates a path 
	while (parent[i] != -1) {
    1706:	bc 01       	movw	r22, r24
    1708:	66 0f       	add	r22, r22
    170a:	77 1f       	adc	r23, r23
    170c:	6c 0d       	add	r22, r12
    170e:	7d 1d       	adc	r23, r13
    1710:	4e 5f       	subi	r20, 0xFE	; 254
    1712:	5f 4f       	sbci	r21, 0xFF	; 255
    1714:	db 01       	movw	r26, r22
    1716:	8d 91       	ld	r24, X+
    1718:	9c 91       	ld	r25, X
    171a:	bf ef       	ldi	r27, 0xFF	; 255
    171c:	8f 3f       	cpi	r24, 0xFF	; 255
    171e:	9b 07       	cpc	r25, r27
    1720:	21 f7       	brne	.-56     	; 0x16ea <pathFind+0x3e>
		(*pathSize)++;
		path[j++] = parent[i];
		i = parent[i];
	}
	path[j] = -1;
    1722:	ee 0f       	add	r30, r30
    1724:	ff 1f       	adc	r31, r31
    1726:	ec 0f       	add	r30, r28
    1728:	fd 1f       	adc	r31, r29
    172a:	91 83       	std	Z+1, r25	; 0x01
    172c:	80 83       	st	Z, r24
	//Corrects the order of the path
	reverse (path, *pathSize);
    172e:	f7 01       	movw	r30, r14
    1730:	60 81       	ld	r22, Z
    1732:	71 81       	ldd	r23, Z+1	; 0x01
    1734:	ce 01       	movw	r24, r28
    1736:	0e 94 bf 03 	call	0x77e	; 0x77e <reverse>
	/*for (int i = 0; i < *pathSize; i++)
		cout << path[i] << "\t";
	cout << endl;
	*/
	return path;
}
    173a:	ce 01       	movw	r24, r28
    173c:	df 91       	pop	r29
    173e:	cf 91       	pop	r28
    1740:	1f 91       	pop	r17
    1742:	0f 91       	pop	r16
    1744:	ff 90       	pop	r15
    1746:	ef 90       	pop	r14
    1748:	df 90       	pop	r13
    174a:	cf 90       	pop	r12
    174c:	08 95       	ret

0000174e <NewQueue>:
	struct Node *temp = (struct Node*) malloc (sizeof(struct Node));
	temp->next=NULL;
	return temp;
}
struct Queue * NewQueue() {
	struct Queue *Q = (struct Queue*) malloc (sizeof(struct Queue));
    174e:	84 e0       	ldi	r24, 0x04	; 4
    1750:	90 e0       	ldi	r25, 0x00	; 0
    1752:	0e 94 f7 15 	call	0x2bee	; 0x2bee <malloc>
    1756:	fc 01       	movw	r30, r24
	Q->head=NULL;
    1758:	11 82       	std	Z+1, r1	; 0x01
    175a:	10 82       	st	Z, r1
	Q->tail=NULL;
    175c:	13 82       	std	Z+3, r1	; 0x03
    175e:	12 82       	std	Z+2, r1	; 0x02
	return Q;
}
    1760:	08 95       	ret

00001762 <NewNode>:
int DeQueue(struct Queue *Q);
void EmptyQueue(struct Queue *Q);
int IsEmpty(struct Queue *Q);

struct Node * NewNode() {
	struct Node *temp = (struct Node*) malloc (sizeof(struct Node));
    1762:	84 e0       	ldi	r24, 0x04	; 4
    1764:	90 e0       	ldi	r25, 0x00	; 0
    1766:	0e 94 f7 15 	call	0x2bee	; 0x2bee <malloc>
    176a:	fc 01       	movw	r30, r24
	temp->next=NULL;
    176c:	13 82       	std	Z+3, r1	; 0x03
    176e:	12 82       	std	Z+2, r1	; 0x02
	return temp;
}
    1770:	08 95       	ret

00001772 <EnQueue>:
	Q->head=NULL;
	Q->tail=NULL;
	return Q;
}

void EnQueue(struct Queue *Q, int data) {
    1772:	0f 93       	push	r16
    1774:	1f 93       	push	r17
    1776:	cf 93       	push	r28
    1778:	df 93       	push	r29
    177a:	ec 01       	movw	r28, r24
    177c:	8b 01       	movw	r16, r22
	struct Node * temp= NewNode();
    177e:	0e 94 b1 0b 	call	0x1762	; 0x1762 <NewNode>
    1782:	dc 01       	movw	r26, r24
	temp->data=data;
    1784:	11 96       	adiw	r26, 0x01	; 1
    1786:	1c 93       	st	X, r17
    1788:	0e 93       	st	-X, r16
	if(Q->head==NULL && Q->tail==NULL) {
    178a:	88 81       	ld	r24, Y
    178c:	99 81       	ldd	r25, Y+1	; 0x01
    178e:	89 2b       	or	r24, r25
    1790:	39 f4       	brne	.+14     	; 0x17a0 <EnQueue+0x2e>
    1792:	8a 81       	ldd	r24, Y+2	; 0x02
    1794:	9b 81       	ldd	r25, Y+3	; 0x03
    1796:	89 2b       	or	r24, r25
    1798:	19 f4       	brne	.+6      	; 0x17a0 <EnQueue+0x2e>
		Q->head=temp;
    179a:	b9 83       	std	Y+1, r27	; 0x01
    179c:	a8 83       	st	Y, r26
    179e:	04 c0       	rjmp	.+8      	; 0x17a8 <EnQueue+0x36>
		Q->tail=temp;
		return;
	}
	Q->tail->next=temp;
    17a0:	ea 81       	ldd	r30, Y+2	; 0x02
    17a2:	fb 81       	ldd	r31, Y+3	; 0x03
    17a4:	b3 83       	std	Z+3, r27	; 0x03
    17a6:	a2 83       	std	Z+2, r26	; 0x02
	Q->tail=temp;
    17a8:	bb 83       	std	Y+3, r27	; 0x03
    17aa:	aa 83       	std	Y+2, r26	; 0x02
}
    17ac:	df 91       	pop	r29
    17ae:	cf 91       	pop	r28
    17b0:	1f 91       	pop	r17
    17b2:	0f 91       	pop	r16
    17b4:	08 95       	ret

000017b6 <Move>:
				3rd tells the node it was supposed to go to.
	*Logic: Converts nodes to an array of angle and calls the run function
			Returns the result by changing index to actual nodes
	*Example Call: int *res = Move (path, pathSize);
*/
int* Move (int path[], int pathSize) {
    17b6:	8f 92       	push	r8
    17b8:	9f 92       	push	r9
    17ba:	af 92       	push	r10
    17bc:	bf 92       	push	r11
    17be:	cf 92       	push	r12
    17c0:	df 92       	push	r13
    17c2:	ef 92       	push	r14
    17c4:	ff 92       	push	r15
    17c6:	0f 93       	push	r16
    17c8:	1f 93       	push	r17
    17ca:	cf 93       	push	r28
    17cc:	df 93       	push	r29
    17ce:	6c 01       	movw	r12, r24
    17d0:	7b 01       	movw	r14, r22
	signed int *angle = (signed int*) malloc(pathSize*sizeof(int));
    17d2:	cb 01       	movw	r24, r22
    17d4:	88 0f       	add	r24, r24
    17d6:	99 1f       	adc	r25, r25
    17d8:	0e 94 f7 15 	call	0x2bee	; 0x2bee <malloc>
    17dc:	8c 01       	movw	r16, r24
    17de:	e6 01       	movw	r28, r12
    17e0:	bc 01       	movw	r22, r24
    17e2:	41 e0       	ldi	r20, 0x01	; 1
    17e4:	50 e0       	ldi	r21, 0x00	; 0
	for (int j = 0, i = 1; i < pathSize-1; i++, j++) {
    17e6:	57 01       	movw	r10, r14
    17e8:	08 94       	sec
    17ea:	a1 08       	sbc	r10, r1
    17ec:	b1 08       	sbc	r11, r1
		//This could be buggy
		angle[j] = map_angle[path[i]][path[i+1]] - 
    17ee:	f1 e3       	ldi	r31, 0x31	; 49
    17f0:	8f 2e       	mov	r8, r31
    17f2:	91 2c       	mov	r9, r1
    17f4:	2c c0       	rjmp	.+88     	; 0x184e <Move+0x98>
    17f6:	2a 81       	ldd	r18, Y+2	; 0x02
    17f8:	3b 81       	ldd	r19, Y+3	; 0x03
    17fa:	28 9d       	mul	r18, r8
    17fc:	d0 01       	movw	r26, r0
    17fe:	29 9d       	mul	r18, r9
    1800:	b0 0d       	add	r27, r0
    1802:	38 9d       	mul	r19, r8
    1804:	b0 0d       	add	r27, r0
    1806:	11 24       	eor	r1, r1
    1808:	8c 81       	ldd	r24, Y+4	; 0x04
    180a:	9d 81       	ldd	r25, Y+5	; 0x05
    180c:	a8 0f       	add	r26, r24
    180e:	b9 1f       	adc	r27, r25
    1810:	aa 0f       	add	r26, r26
    1812:	bb 1f       	adc	r27, r27
    1814:	aa 52       	subi	r26, 0x2A	; 42
    1816:	b8 4e       	sbci	r27, 0xE8	; 232
    1818:	89 91       	ld	r24, Y+
    181a:	99 91       	ld	r25, Y+
    181c:	88 9d       	mul	r24, r8
    181e:	f0 01       	movw	r30, r0
    1820:	89 9d       	mul	r24, r9
    1822:	f0 0d       	add	r31, r0
    1824:	98 9d       	mul	r25, r8
    1826:	f0 0d       	add	r31, r0
    1828:	11 24       	eor	r1, r1
    182a:	e2 0f       	add	r30, r18
    182c:	f3 1f       	adc	r31, r19
    182e:	ee 0f       	add	r30, r30
    1830:	ff 1f       	adc	r31, r31
    1832:	ea 52       	subi	r30, 0x2A	; 42
    1834:	f8 4e       	sbci	r31, 0xE8	; 232
    1836:	8d 91       	ld	r24, X+
    1838:	9c 91       	ld	r25, X
    183a:	20 81       	ld	r18, Z
    183c:	31 81       	ldd	r19, Z+1	; 0x01
    183e:	82 1b       	sub	r24, r18
    1840:	93 0b       	sbc	r25, r19
    1842:	fb 01       	movw	r30, r22
    1844:	81 93       	st	Z+, r24
    1846:	91 93       	st	Z+, r25
    1848:	bf 01       	movw	r22, r30
			Returns the result by changing index to actual nodes
	*Example Call: int *res = Move (path, pathSize);
*/
int* Move (int path[], int pathSize) {
	signed int *angle = (signed int*) malloc(pathSize*sizeof(int));
	for (int j = 0, i = 1; i < pathSize-1; i++, j++) {
    184a:	4f 5f       	subi	r20, 0xFF	; 255
    184c:	5f 4f       	sbci	r21, 0xFF	; 255
    184e:	4a 15       	cp	r20, r10
    1850:	5b 05       	cpc	r21, r11
    1852:	8c f2       	brlt	.-94     	; 0x17f6 <Move+0x40>
		//This could be buggy
		angle[j] = map_angle[path[i]][path[i+1]] - 
					map_angle[path[i-1]][path[i]];
	}
	angle[pathSize-1] = -1;
    1854:	f7 01       	movw	r30, r14
    1856:	31 97       	sbiw	r30, 0x01	; 1
    1858:	ee 0f       	add	r30, r30
    185a:	ff 1f       	adc	r31, r31
    185c:	e0 0f       	add	r30, r16
    185e:	f1 1f       	adc	r31, r17
    1860:	8f ef       	ldi	r24, 0xFF	; 255
    1862:	9f ef       	ldi	r25, 0xFF	; 255
    1864:	91 83       	std	Z+1, r25	; 0x01
    1866:	80 83       	st	Z, r24
	int *res = mapRun (angle, pathSize);
    1868:	c8 01       	movw	r24, r16
    186a:	b7 01       	movw	r22, r14
    186c:	0e 94 86 09 	call	0x130c	; 0x130c <mapRun>
    1870:	ec 01       	movw	r28, r24
	if (res[0] != 0) {
    1872:	88 81       	ld	r24, Y
    1874:	99 81       	ldd	r25, Y+1	; 0x01
    1876:	89 2b       	or	r24, r25
    1878:	a1 f0       	breq	.+40     	; 0x18a2 <Move+0xec>
		res[1] = path[res[1]];
    187a:	ea 81       	ldd	r30, Y+2	; 0x02
    187c:	fb 81       	ldd	r31, Y+3	; 0x03
    187e:	ee 0f       	add	r30, r30
    1880:	ff 1f       	adc	r31, r31
    1882:	ec 0d       	add	r30, r12
    1884:	fd 1d       	adc	r31, r13
    1886:	80 81       	ld	r24, Z
    1888:	91 81       	ldd	r25, Z+1	; 0x01
    188a:	9b 83       	std	Y+3, r25	; 0x03
    188c:	8a 83       	std	Y+2, r24	; 0x02
		res[2] = path[res[2]];
    188e:	ec 81       	ldd	r30, Y+4	; 0x04
    1890:	fd 81       	ldd	r31, Y+5	; 0x05
    1892:	ee 0f       	add	r30, r30
    1894:	ff 1f       	adc	r31, r31
    1896:	ec 0d       	add	r30, r12
    1898:	fd 1d       	adc	r31, r13
    189a:	80 81       	ld	r24, Z
    189c:	91 81       	ldd	r25, Z+1	; 0x01
    189e:	9d 83       	std	Y+5, r25	; 0x05
    18a0:	8c 83       	std	Y+4, r24	; 0x04
	}
	free(angle);
    18a2:	c8 01       	movw	r24, r16
    18a4:	0e 94 a4 16 	call	0x2d48	; 0x2d48 <free>
	return res;
}
    18a8:	ce 01       	movw	r24, r28
    18aa:	df 91       	pop	r29
    18ac:	cf 91       	pop	r28
    18ae:	1f 91       	pop	r17
    18b0:	0f 91       	pop	r16
    18b2:	ff 90       	pop	r15
    18b4:	ef 90       	pop	r14
    18b6:	df 90       	pop	r13
    18b8:	cf 90       	pop	r12
    18ba:	bf 90       	pop	r11
    18bc:	af 90       	pop	r10
    18be:	9f 90       	pop	r9
    18c0:	8f 90       	pop	r8
    18c2:	08 95       	ret

000018c4 <DeQueue>:

int DeQueue(struct Queue *Q) {
    18c4:	cf 93       	push	r28
    18c6:	df 93       	push	r29
    18c8:	dc 01       	movw	r26, r24
	if(Q->head==NULL && Q->tail==NULL) {
    18ca:	ed 91       	ld	r30, X+
    18cc:	fc 91       	ld	r31, X
    18ce:	11 97       	sbiw	r26, 0x01	; 1
    18d0:	30 97       	sbiw	r30, 0x00	; 0
    18d2:	49 f4       	brne	.+18     	; 0x18e6 <DeQueue+0x22>
    18d4:	12 96       	adiw	r26, 0x02	; 2
    18d6:	8d 91       	ld	r24, X+
    18d8:	9c 91       	ld	r25, X
    18da:	13 97       	sbiw	r26, 0x03	; 3
    18dc:	89 2b       	or	r24, r25
    18de:	19 f4       	brne	.+6      	; 0x18e6 <DeQueue+0x22>
    18e0:	cf ef       	ldi	r28, 0xFF	; 255
    18e2:	df ef       	ldi	r29, 0xFF	; 255
    18e4:	10 c0       	rjmp	.+32     	; 0x1906 <DeQueue+0x42>
		return -1;
	}
	struct Node *temp = Q->head;
	int data = temp->data;
    18e6:	c0 81       	ld	r28, Z
    18e8:	d1 81       	ldd	r29, Z+1	; 0x01
	Q->head=Q->head->next;
    18ea:	82 81       	ldd	r24, Z+2	; 0x02
    18ec:	93 81       	ldd	r25, Z+3	; 0x03
    18ee:	11 96       	adiw	r26, 0x01	; 1
    18f0:	9c 93       	st	X, r25
    18f2:	8e 93       	st	-X, r24
	if(Q->head==NULL)
    18f4:	89 2b       	or	r24, r25
    18f6:	21 f4       	brne	.+8      	; 0x1900 <DeQueue+0x3c>
		Q->tail=NULL;
    18f8:	13 96       	adiw	r26, 0x03	; 3
    18fa:	1c 92       	st	X, r1
    18fc:	1e 92       	st	-X, r1
    18fe:	12 97       	sbiw	r26, 0x02	; 2
	free (temp);	
    1900:	cf 01       	movw	r24, r30
    1902:	0e 94 a4 16 	call	0x2d48	; 0x2d48 <free>
	return data;
}
    1906:	ce 01       	movw	r24, r28
    1908:	df 91       	pop	r29
    190a:	cf 91       	pop	r28
    190c:	08 95       	ret

0000190e <BFS>:
			It puts the source to a queue. Then as long as the queue is not
			empty, it dequeues the first element, enqueues all the neighbours
			which were not already explored and updates the cost.
	*Example Call: int *cost = BFS(source);
*/
int* BFS (int search) {
    190e:	2f 92       	push	r2
    1910:	3f 92       	push	r3
    1912:	4f 92       	push	r4
    1914:	5f 92       	push	r5
    1916:	6f 92       	push	r6
    1918:	7f 92       	push	r7
    191a:	8f 92       	push	r8
    191c:	9f 92       	push	r9
    191e:	af 92       	push	r10
    1920:	bf 92       	push	r11
    1922:	cf 92       	push	r12
    1924:	df 92       	push	r13
    1926:	ef 92       	push	r14
    1928:	ff 92       	push	r15
    192a:	0f 93       	push	r16
    192c:	1f 93       	push	r17
    192e:	df 93       	push	r29
    1930:	cf 93       	push	r28
    1932:	cd b7       	in	r28, 0x3d	; 61
    1934:	de b7       	in	r29, 0x3e	; 62
    1936:	c2 56       	subi	r28, 0x62	; 98
    1938:	d0 40       	sbci	r29, 0x00	; 0
    193a:	0f b6       	in	r0, 0x3f	; 63
    193c:	f8 94       	cli
    193e:	de bf       	out	0x3e, r29	; 62
    1940:	0f be       	out	0x3f, r0	; 63
    1942:	cd bf       	out	0x3d, r28	; 61
    1944:	8c 01       	movw	r16, r24
	struct Queue *Q = NewQueue();	//Initializing the queue required to 
    1946:	0e 94 a7 0b 	call	0x174e	; 0x174e <NewQueue>
    194a:	2c 01       	movw	r4, r24
									//maintan nodes to be visited
	int *bfs, source = search;
	bfs = (int *) malloc (size*sizeof (int));
    194c:	82 e6       	ldi	r24, 0x62	; 98
    194e:	90 e0       	ldi	r25, 0x00	; 0
    1950:	0e 94 f7 15 	call	0x2bee	; 0x2bee <malloc>
    1954:	1c 01       	movw	r2, r24
    1956:	5c 01       	movw	r10, r24
    1958:	dc 01       	movw	r26, r24
    195a:	fe 01       	movw	r30, r28
    195c:	33 96       	adiw	r30, 0x03	; 3
	int visited[size];				//Maintains if the node is visited
	for (int i = 1; i < size; i++) {
    195e:	ce 01       	movw	r24, r28
    1960:	8d 59       	subi	r24, 0x9D	; 157
    1962:	9f 4f       	sbci	r25, 0xFF	; 255
		bfs[i] = 0;
    1964:	13 96       	adiw	r26, 0x03	; 3
    1966:	1c 92       	st	X, r1
    1968:	1e 92       	st	-X, r1
    196a:	12 97       	sbiw	r26, 0x02	; 2
		visited[i] = 0;
    196c:	11 92       	st	Z+, r1
    196e:	11 92       	st	Z+, r1
    1970:	12 96       	adiw	r26, 0x02	; 2
	struct Queue *Q = NewQueue();	//Initializing the queue required to 
									//maintan nodes to be visited
	int *bfs, source = search;
	bfs = (int *) malloc (size*sizeof (int));
	int visited[size];				//Maintains if the node is visited
	for (int i = 1; i < size; i++) {
    1972:	e8 17       	cp	r30, r24
    1974:	f9 07       	cpc	r31, r25
    1976:	b1 f7       	brne	.-20     	; 0x1964 <BFS+0x56>
		bfs[i] = 0;
		visited[i] = 0;
	}
	EnQueue (Q, search);
    1978:	c2 01       	movw	r24, r4
    197a:	b8 01       	movw	r22, r16
    197c:	0e 94 b9 0b 	call	0x1772	; 0x1772 <EnQueue>
    1980:	43 c0       	rjmp	.+134    	; 0x1a08 <BFS+0xfa>
	while (!IsEmpty (Q)) {
		//Accessing the first node in the queue and marking it's neighbours to
		//be searched
		search = DeQueue (Q);
    1982:	c2 01       	movw	r24, r4
    1984:	0e 94 62 0c 	call	0x18c4	; 0x18c4 <DeQueue>
		for (int i = 1; i < size; i++) {
			if (visited[i] == 0) {
				if (map[search][i] != INF) {
					//Adding weight to bfs if the node is connected
					bfs[i] = map[search][i] + bfs[search];
    1988:	3c 01       	movw	r6, r24
    198a:	66 0c       	add	r6, r6
    198c:	77 1c       	adc	r7, r7
    198e:	6a 0c       	add	r6, r10
    1990:	7b 1c       	adc	r7, r11
    1992:	22 e6       	ldi	r18, 0x62	; 98
    1994:	30 e0       	ldi	r19, 0x00	; 0
    1996:	82 9f       	mul	r24, r18
    1998:	60 01       	movw	r12, r0
    199a:	83 9f       	mul	r24, r19
    199c:	d0 0c       	add	r13, r0
    199e:	92 9f       	mul	r25, r18
    19a0:	d0 0c       	add	r13, r0
    19a2:	11 24       	eor	r1, r1
    19a4:	8c e4       	ldi	r24, 0x4C	; 76
    19a6:	94 e0       	ldi	r25, 0x04	; 4
    19a8:	c8 0e       	add	r12, r24
    19aa:	d9 1e       	adc	r13, r25
    19ac:	b3 e0       	ldi	r27, 0x03	; 3
    19ae:	8b 2e       	mov	r8, r27
    19b0:	91 2c       	mov	r9, r1
    19b2:	8c 0e       	add	r8, r28
    19b4:	9d 1e       	adc	r9, r29
    19b6:	71 01       	movw	r14, r2
    19b8:	01 e0       	ldi	r16, 0x01	; 1
    19ba:	10 e0       	ldi	r17, 0x00	; 0
	while (!IsEmpty (Q)) {
		//Accessing the first node in the queue and marking it's neighbours to
		//be searched
		search = DeQueue (Q);
		for (int i = 1; i < size; i++) {
			if (visited[i] == 0) {
    19bc:	f4 01       	movw	r30, r8
    19be:	80 81       	ld	r24, Z
    19c0:	91 81       	ldd	r25, Z+1	; 0x01
    19c2:	89 2b       	or	r24, r25
    19c4:	a1 f4       	brne	.+40     	; 0x19ee <BFS+0xe0>
				if (map[search][i] != INF) {
					//Adding weight to bfs if the node is connected
					bfs[i] = map[search][i] + bfs[search];
    19c6:	f3 01       	movw	r30, r6
    19c8:	80 81       	ld	r24, Z
    19ca:	91 81       	ldd	r25, Z+1	; 0x01
    19cc:	f6 01       	movw	r30, r12
    19ce:	20 81       	ld	r18, Z
    19d0:	31 81       	ldd	r19, Z+1	; 0x01
    19d2:	82 0f       	add	r24, r18
    19d4:	93 1f       	adc	r25, r19
    19d6:	f7 01       	movw	r30, r14
    19d8:	93 83       	std	Z+3, r25	; 0x03
    19da:	82 83       	std	Z+2, r24	; 0x02
					//In that case, neighbours of this node needs to be scanned
					//too
					EnQueue (Q, i);
    19dc:	c2 01       	movw	r24, r4
    19de:	b8 01       	movw	r22, r16
    19e0:	0e 94 b9 0b 	call	0x1772	; 0x1772 <EnQueue>
					visited [i] = 1;
    19e4:	21 e0       	ldi	r18, 0x01	; 1
    19e6:	30 e0       	ldi	r19, 0x00	; 0
    19e8:	f4 01       	movw	r30, r8
    19ea:	31 83       	std	Z+1, r19	; 0x01
    19ec:	20 83       	st	Z, r18
	EnQueue (Q, search);
	while (!IsEmpty (Q)) {
		//Accessing the first node in the queue and marking it's neighbours to
		//be searched
		search = DeQueue (Q);
		for (int i = 1; i < size; i++) {
    19ee:	0f 5f       	subi	r16, 0xFF	; 255
    19f0:	1f 4f       	sbci	r17, 0xFF	; 255
    19f2:	82 e0       	ldi	r24, 0x02	; 2
    19f4:	90 e0       	ldi	r25, 0x00	; 0
    19f6:	88 0e       	add	r8, r24
    19f8:	99 1e       	adc	r9, r25
    19fa:	c8 0e       	add	r12, r24
    19fc:	d9 1e       	adc	r13, r25
    19fe:	e8 0e       	add	r14, r24
    1a00:	f9 1e       	adc	r15, r25
    1a02:	01 33       	cpi	r16, 0x31	; 49
    1a04:	11 05       	cpc	r17, r1
    1a06:	d1 f6       	brne	.-76     	; 0x19bc <BFS+0xae>
	for (int i = 1; i < size; i++) {
		bfs[i] = 0;
		visited[i] = 0;
	}
	EnQueue (Q, search);
	while (!IsEmpty (Q)) {
    1a08:	f2 01       	movw	r30, r4
    1a0a:	80 81       	ld	r24, Z
    1a0c:	91 81       	ldd	r25, Z+1	; 0x01
    1a0e:	89 2b       	or	r24, r25
    1a10:	09 f0       	breq	.+2      	; 0x1a14 <BFS+0x106>
    1a12:	b7 cf       	rjmp	.-146    	; 0x1982 <BFS+0x74>
				}
			}
		}
	}
	return bfs; 
}
    1a14:	c5 01       	movw	r24, r10
    1a16:	ce 59       	subi	r28, 0x9E	; 158
    1a18:	df 4f       	sbci	r29, 0xFF	; 255
    1a1a:	0f b6       	in	r0, 0x3f	; 63
    1a1c:	f8 94       	cli
    1a1e:	de bf       	out	0x3e, r29	; 62
    1a20:	0f be       	out	0x3f, r0	; 63
    1a22:	cd bf       	out	0x3d, r28	; 61
    1a24:	cf 91       	pop	r28
    1a26:	df 91       	pop	r29
    1a28:	1f 91       	pop	r17
    1a2a:	0f 91       	pop	r16
    1a2c:	ff 90       	pop	r15
    1a2e:	ef 90       	pop	r14
    1a30:	df 90       	pop	r13
    1a32:	cf 90       	pop	r12
    1a34:	bf 90       	pop	r11
    1a36:	af 90       	pop	r10
    1a38:	9f 90       	pop	r9
    1a3a:	8f 90       	pop	r8
    1a3c:	7f 90       	pop	r7
    1a3e:	6f 90       	pop	r6
    1a40:	5f 90       	pop	r5
    1a42:	4f 90       	pop	r4
    1a44:	3f 90       	pop	r3
    1a46:	2f 90       	pop	r2
    1a48:	08 95       	ret

00001a4a <heuristic>:
	*Output: An array with cost (heuristic) of traversing all nodes from the source
	*Logic: Calls BFS to calculate the heuristic
	*Example Call: int *cost = heuristic(source);
*/
int* heuristic (int destination) {
	int *heuris = BFS (destination);	//Calculates heuristics of the node
    1a4a:	0e 94 87 0c 	call	0x190e	; 0x190e <BFS>
	return heuris;
}
    1a4e:	08 95       	ret

00001a50 <EmptyQueue>:

void EmptyQueue(struct Queue *Q) {
    1a50:	cf 93       	push	r28
    1a52:	df 93       	push	r29
    1a54:	ec 01       	movw	r28, r24
    1a56:	03 c0       	rjmp	.+6      	; 0x1a5e <EmptyQueue+0xe>
	while(Q->head!=NULL)
		DeQueue(Q);
    1a58:	ce 01       	movw	r24, r28
    1a5a:	0e 94 62 0c 	call	0x18c4	; 0x18c4 <DeQueue>
	free (temp);	
	return data;
}

void EmptyQueue(struct Queue *Q) {
	while(Q->head!=NULL)
    1a5e:	88 81       	ld	r24, Y
    1a60:	99 81       	ldd	r25, Y+1	; 0x01
    1a62:	89 2b       	or	r24, r25
    1a64:	c9 f7       	brne	.-14     	; 0x1a58 <EmptyQueue+0x8>
		DeQueue(Q);
}
    1a66:	df 91       	pop	r29
    1a68:	cf 91       	pop	r28
    1a6a:	08 95       	ret

00001a6c <dStar>:
			Applies A* search to find the path with least cost.
			If obstacle is encountered, updates the cost and re-evaluates the
			fastest route.
	*Example Call: dStar (1, 5);
*/
int dStar (int source, int dest) {
    1a6c:	2f 92       	push	r2
    1a6e:	3f 92       	push	r3
    1a70:	4f 92       	push	r4
    1a72:	5f 92       	push	r5
    1a74:	6f 92       	push	r6
    1a76:	7f 92       	push	r7
    1a78:	8f 92       	push	r8
    1a7a:	9f 92       	push	r9
    1a7c:	af 92       	push	r10
    1a7e:	bf 92       	push	r11
    1a80:	cf 92       	push	r12
    1a82:	df 92       	push	r13
    1a84:	ef 92       	push	r14
    1a86:	ff 92       	push	r15
    1a88:	0f 93       	push	r16
    1a8a:	1f 93       	push	r17
    1a8c:	df 93       	push	r29
    1a8e:	cf 93       	push	r28
    1a90:	cd b7       	in	r28, 0x3d	; 61
    1a92:	de b7       	in	r29, 0x3e	; 62
    1a94:	c8 5f       	subi	r28, 0xF8	; 248
    1a96:	d1 40       	sbci	r29, 0x01	; 1
    1a98:	0f b6       	in	r0, 0x3f	; 63
    1a9a:	f8 94       	cli
    1a9c:	de bf       	out	0x3e, r29	; 62
    1a9e:	0f be       	out	0x3f, r0	; 63
    1aa0:	cd bf       	out	0x3d, r28	; 61
    1aa2:	c3 51       	subi	r28, 0x13	; 19
    1aa4:	de 4f       	sbci	r29, 0xFE	; 254
    1aa6:	79 83       	std	Y+1, r23	; 0x01
    1aa8:	68 83       	st	Y, r22
    1aaa:	cd 5e       	subi	r28, 0xED	; 237
    1aac:	d1 40       	sbci	r29, 0x01	; 1
		int gCost[size], fCost[size];	
		int openSize = 0, closedSize = 0;				//Maintains the size of
		//open list.
		//This speeds up the scanning process.
		gCost[source] = 0;
		fCost[source] = fCostCalc (gCost[source], heuris[source]);
    1aae:	1c 01       	movw	r2, r24
    1ab0:	22 0c       	add	r2, r2
    1ab2:	33 1c       	adc	r3, r3
		int parent[size], open[size], closed[size], current;	
		int gCost[size], fCost[size];	
		int openSize = 0, closedSize = 0;				//Maintains the size of
		//open list.
		//This speeds up the scanning process.
		gCost[source] = 0;
    1ab4:	9e 01       	movw	r18, r28
    1ab6:	29 5d       	subi	r18, 0xD9	; 217
    1ab8:	3e 4f       	sbci	r19, 0xFE	; 254
    1aba:	cb 50       	subi	r28, 0x0B	; 11
    1abc:	de 4f       	sbci	r29, 0xFE	; 254
    1abe:	39 83       	std	Y+1, r19	; 0x01
    1ac0:	28 83       	st	Y, r18
    1ac2:	c5 5f       	subi	r28, 0xF5	; 245
    1ac4:	d1 40       	sbci	r29, 0x01	; 1
    1ac6:	a9 01       	movw	r20, r18
    1ac8:	42 0d       	add	r20, r2
    1aca:	53 1d       	adc	r21, r3
    1acc:	c1 51       	subi	r28, 0x11	; 17
    1ace:	de 4f       	sbci	r29, 0xFE	; 254
    1ad0:	59 83       	std	Y+1, r21	; 0x01
    1ad2:	48 83       	st	Y, r20
    1ad4:	cf 5e       	subi	r28, 0xEF	; 239
    1ad6:	d1 40       	sbci	r29, 0x01	; 1
		fCost[source] = fCostCalc (gCost[source], heuris[source]);
    1ad8:	89 e8       	ldi	r24, 0x89	; 137
    1ada:	91 e0       	ldi	r25, 0x01	; 1
    1adc:	8c 0f       	add	r24, r28
    1ade:	9d 1f       	adc	r25, r29
    1ae0:	82 0d       	add	r24, r2
    1ae2:	93 1d       	adc	r25, r3
    1ae4:	cf 50       	subi	r28, 0x0F	; 15
    1ae6:	de 4f       	sbci	r29, 0xFE	; 254
    1ae8:	99 83       	std	Y+1, r25	; 0x01
    1aea:	88 83       	st	Y, r24
    1aec:	c1 5f       	subi	r28, 0xF1	; 241
    1aee:	d1 40       	sbci	r29, 0x01	; 1
			//Initialising open and closed list to be empty
			open[i] = closed[i] = 0;
			parent[i] = -1;
			gCost[i] = fCost[i] = INF;
		}
		open[source] = 1, openSize++;
    1af0:	e3 e6       	ldi	r30, 0x63	; 99
    1af2:	f0 e0       	ldi	r31, 0x00	; 0
    1af4:	ec 0f       	add	r30, r28
    1af6:	fd 1f       	adc	r31, r29
    1af8:	e2 0d       	add	r30, r2
    1afa:	f3 1d       	adc	r31, r3
    1afc:	cd 50       	subi	r28, 0x0D	; 13
    1afe:	de 4f       	sbci	r29, 0xFE	; 254
    1b00:	f9 83       	std	Y+1, r31	; 0x01
    1b02:	e8 83       	st	Y, r30
    1b04:	c3 5f       	subi	r28, 0xF3	; 243
    1b06:	d1 40       	sbci	r29, 0x01	; 1
	*Output: An array with cost (heuristic) of traversing all nodes from the source
	*Logic: Calls BFS to calculate the heuristic
	*Example Call: int *cost = heuristic(source);
*/
int* heuristic (int destination) {
	int *heuris = BFS (destination);	//Calculates heuristics of the node
    1b08:	c3 51       	subi	r28, 0x13	; 19
    1b0a:	de 4f       	sbci	r29, 0xFE	; 254
    1b0c:	88 81       	ld	r24, Y
    1b0e:	99 81       	ldd	r25, Y+1	; 0x01
    1b10:	cd 5e       	subi	r28, 0xED	; 237
    1b12:	d1 40       	sbci	r29, 0x01	; 1
    1b14:	0e 94 87 0c 	call	0x190e	; 0x190e <BFS>
    1b18:	c5 51       	subi	r28, 0x15	; 21
    1b1a:	de 4f       	sbci	r29, 0xFE	; 254
    1b1c:	99 83       	std	Y+1, r25	; 0x01
    1b1e:	88 83       	st	Y, r24
    1b20:	cb 5e       	subi	r28, 0xEB	; 235
    1b22:	d1 40       	sbci	r29, 0x01	; 1
		int parent[size], open[size], closed[size], current;	
		int gCost[size], fCost[size];	
		int openSize = 0, closedSize = 0;				//Maintains the size of
		//open list.
		//This speeds up the scanning process.
		gCost[source] = 0;
    1b24:	c1 51       	subi	r28, 0x11	; 17
    1b26:	de 4f       	sbci	r29, 0xFE	; 254
    1b28:	e8 81       	ld	r30, Y
    1b2a:	f9 81       	ldd	r31, Y+1	; 0x01
    1b2c:	cf 5e       	subi	r28, 0xEF	; 239
    1b2e:	d1 40       	sbci	r29, 0x01	; 1
    1b30:	11 82       	std	Z+1, r1	; 0x01
    1b32:	10 82       	st	Z, r1
		fCost[source] = fCostCalc (gCost[source], heuris[source]);
    1b34:	fc 01       	movw	r30, r24
    1b36:	e2 0d       	add	r30, r2
    1b38:	f3 1d       	adc	r31, r3
    1b3a:	80 81       	ld	r24, Z
    1b3c:	91 81       	ldd	r25, Z+1	; 0x01
    1b3e:	cf 50       	subi	r28, 0x0F	; 15
    1b40:	de 4f       	sbci	r29, 0xFE	; 254
    1b42:	e8 81       	ld	r30, Y
    1b44:	f9 81       	ldd	r31, Y+1	; 0x01
    1b46:	c1 5f       	subi	r28, 0xF1	; 241
    1b48:	d1 40       	sbci	r29, 0x01	; 1
    1b4a:	91 83       	std	Z+1, r25	; 0x01
    1b4c:	80 83       	st	Z, r24
    1b4e:	80 e0       	ldi	r24, 0x00	; 0
    1b50:	90 e0       	ldi	r25, 0x00	; 0
		for (int i = 0; i < size; i++) {
			//Initialising open and closed list to be empty
			open[i] = closed[i] = 0;
    1b52:	e5 ec       	ldi	r30, 0xC5	; 197
    1b54:	f0 e0       	ldi	r31, 0x00	; 0
    1b56:	ec 0f       	add	r30, r28
    1b58:	fd 1f       	adc	r31, r29
    1b5a:	e8 0f       	add	r30, r24
    1b5c:	f9 1f       	adc	r31, r25
    1b5e:	11 82       	std	Z+1, r1	; 0x01
    1b60:	10 82       	st	Z, r1
    1b62:	e3 e6       	ldi	r30, 0x63	; 99
    1b64:	f0 e0       	ldi	r31, 0x00	; 0
    1b66:	ec 0f       	add	r30, r28
    1b68:	fd 1f       	adc	r31, r29
    1b6a:	e8 0f       	add	r30, r24
    1b6c:	f9 1f       	adc	r31, r25
    1b6e:	11 82       	std	Z+1, r1	; 0x01
    1b70:	10 82       	st	Z, r1
			parent[i] = -1;
    1b72:	e1 e0       	ldi	r30, 0x01	; 1
    1b74:	f0 e0       	ldi	r31, 0x00	; 0
    1b76:	ec 0f       	add	r30, r28
    1b78:	fd 1f       	adc	r31, r29
    1b7a:	e8 0f       	add	r30, r24
    1b7c:	f9 1f       	adc	r31, r25
    1b7e:	2f ef       	ldi	r18, 0xFF	; 255
    1b80:	3f ef       	ldi	r19, 0xFF	; 255
    1b82:	31 83       	std	Z+1, r19	; 0x01
    1b84:	20 83       	st	Z, r18
			gCost[i] = fCost[i] = INF;
    1b86:	e9 e8       	ldi	r30, 0x89	; 137
    1b88:	f1 e0       	ldi	r31, 0x01	; 1
    1b8a:	ec 0f       	add	r30, r28
    1b8c:	fd 1f       	adc	r31, r29
    1b8e:	e8 0f       	add	r30, r24
    1b90:	f9 1f       	adc	r31, r25
    1b92:	40 ec       	ldi	r20, 0xC0	; 192
    1b94:	57 e2       	ldi	r21, 0x27	; 39
    1b96:	51 83       	std	Z+1, r21	; 0x01
    1b98:	40 83       	st	Z, r20
    1b9a:	e7 e2       	ldi	r30, 0x27	; 39
    1b9c:	f1 e0       	ldi	r31, 0x01	; 1
    1b9e:	ec 0f       	add	r30, r28
    1ba0:	fd 1f       	adc	r31, r29
    1ba2:	e8 0f       	add	r30, r24
    1ba4:	f9 1f       	adc	r31, r25
    1ba6:	51 83       	std	Z+1, r21	; 0x01
    1ba8:	40 83       	st	Z, r20
    1baa:	02 96       	adiw	r24, 0x02	; 2
		int openSize = 0, closedSize = 0;				//Maintains the size of
		//open list.
		//This speeds up the scanning process.
		gCost[source] = 0;
		fCost[source] = fCostCalc (gCost[source], heuris[source]);
		for (int i = 0; i < size; i++) {
    1bac:	82 36       	cpi	r24, 0x62	; 98
    1bae:	91 05       	cpc	r25, r1
    1bb0:	81 f6       	brne	.-96     	; 0x1b52 <dStar+0xe6>
			//Initialising open and closed list to be empty
			open[i] = closed[i] = 0;
			parent[i] = -1;
			gCost[i] = fCost[i] = INF;
		}
		open[source] = 1, openSize++;
    1bb2:	21 e0       	ldi	r18, 0x01	; 1
    1bb4:	30 e0       	ldi	r19, 0x00	; 0
    1bb6:	cd 50       	subi	r28, 0x0D	; 13
    1bb8:	de 4f       	sbci	r29, 0xFE	; 254
    1bba:	e8 81       	ld	r30, Y
    1bbc:	f9 81       	ldd	r31, Y+1	; 0x01
    1bbe:	c3 5f       	subi	r28, 0xF3	; 243
    1bc0:	d1 40       	sbci	r29, 0x01	; 1
    1bc2:	31 83       	std	Z+1, r19	; 0x01
    1bc4:	20 83       	st	Z, r18
    1bc6:	91 e0       	ldi	r25, 0x01	; 1
    1bc8:	69 2e       	mov	r6, r25
    1bca:	71 2c       	mov	r7, r1
    1bcc:	e5 c0       	rjmp	.+458    	; 0x1d98 <dStar+0x32c>
*/
int extractMin (int list[], int cost[], int Size) {
	//Think of initializing min
	int min = -1;	
	for (int i = 0; i < Size; i++) {
		if (list[i] != 0) {
    1bce:	f8 01       	movw	r30, r16
    1bd0:	80 81       	ld	r24, Z
    1bd2:	91 81       	ldd	r25, Z+1	; 0x01
    1bd4:	89 2b       	or	r24, r25
    1bd6:	b1 f0       	breq	.+44     	; 0x1c04 <dStar+0x198>
			if (min == -1) {
    1bd8:	ff ef       	ldi	r31, 0xFF	; 255
    1bda:	6f 3f       	cpi	r22, 0xFF	; 255
    1bdc:	7f 07       	cpc	r23, r31
    1bde:	89 f0       	breq	.+34     	; 0x1c02 <dStar+0x196>
				min = i;
				continue;
			}
			min = ((cost[min] < cost[i]) ? min : i);
    1be0:	fb 01       	movw	r30, r22
    1be2:	ee 0f       	add	r30, r30
    1be4:	ff 1f       	adc	r31, r31
    1be6:	29 e8       	ldi	r18, 0x89	; 137
    1be8:	31 e0       	ldi	r19, 0x01	; 1
    1bea:	2c 0f       	add	r18, r28
    1bec:	3d 1f       	adc	r19, r29
    1bee:	e2 0f       	add	r30, r18
    1bf0:	f3 1f       	adc	r31, r19
    1bf2:	20 81       	ld	r18, Z
    1bf4:	31 81       	ldd	r19, Z+1	; 0x01
    1bf6:	8d 91       	ld	r24, X+
    1bf8:	9c 91       	ld	r25, X
    1bfa:	11 97       	sbiw	r26, 0x01	; 1
    1bfc:	28 17       	cp	r18, r24
    1bfe:	39 07       	cpc	r19, r25
    1c00:	0c f0       	brlt	.+2      	; 0x1c04 <dStar+0x198>
    1c02:	ba 01       	movw	r22, r20
	*Example Call: int min = extractMin (openList, fCost, size);
*/
int extractMin (int list[], int cost[], int Size) {
	//Think of initializing min
	int min = -1;	
	for (int i = 0; i < Size; i++) {
    1c04:	4f 5f       	subi	r20, 0xFF	; 255
    1c06:	5f 4f       	sbci	r21, 0xFF	; 255
    1c08:	0e 5f       	subi	r16, 0xFE	; 254
    1c0a:	1f 4f       	sbci	r17, 0xFF	; 255
    1c0c:	12 96       	adiw	r26, 0x02	; 2
    1c0e:	41 33       	cpi	r20, 0x31	; 49
    1c10:	51 05       	cpc	r21, r1
    1c12:	e9 f6       	brne	.-70     	; 0x1bce <dStar+0x162>
		//Scan as long as the open list is not empty
		while (openSize > 0) {
			current = extractMin (open, fCost, size);
			open[current] = 0, openSize--;
    1c14:	cb 01       	movw	r24, r22
    1c16:	88 0f       	add	r24, r24
    1c18:	99 1f       	adc	r25, r25
    1c1a:	e3 e6       	ldi	r30, 0x63	; 99
    1c1c:	f0 e0       	ldi	r31, 0x00	; 0
    1c1e:	ec 0f       	add	r30, r28
    1c20:	fd 1f       	adc	r31, r29
    1c22:	e8 0f       	add	r30, r24
    1c24:	f9 1f       	adc	r31, r25
    1c26:	11 82       	std	Z+1, r1	; 0x01
    1c28:	10 82       	st	Z, r1
			closed[current] = 1, closedSize++;
    1c2a:	e5 ec       	ldi	r30, 0xC5	; 197
    1c2c:	f0 e0       	ldi	r31, 0x00	; 0
    1c2e:	ec 0f       	add	r30, r28
    1c30:	fd 1f       	adc	r31, r29
    1c32:	e8 0f       	add	r30, r24
    1c34:	f9 1f       	adc	r31, r25
    1c36:	41 e0       	ldi	r20, 0x01	; 1
    1c38:	50 e0       	ldi	r21, 0x00	; 0
    1c3a:	51 83       	std	Z+1, r21	; 0x01
    1c3c:	40 83       	st	Z, r20
			if (current == dest) break;		//Path to destination is available
    1c3e:	c3 51       	subi	r28, 0x13	; 19
    1c40:	de 4f       	sbci	r29, 0xFE	; 254
    1c42:	e8 81       	ld	r30, Y
    1c44:	f9 81       	ldd	r31, Y+1	; 0x01
    1c46:	cd 5e       	subi	r28, 0xED	; 237
    1c48:	d1 40       	sbci	r29, 0x01	; 1
    1c4a:	6e 17       	cp	r22, r30
    1c4c:	7f 07       	cpc	r23, r31
    1c4e:	09 f4       	brne	.+2      	; 0x1c52 <dStar+0x1e6>
    1c50:	ae c0       	rjmp	.+348    	; 0x1dae <dStar+0x342>
		}
		open[source] = 1, openSize++;
		//Scan as long as the open list is not empty
		while (openSize > 0) {
			current = extractMin (open, fCost, size);
			open[current] = 0, openSize--;
    1c52:	08 94       	sec
    1c54:	61 08       	sbc	r6, r1
    1c56:	71 08       	sbc	r7, r1
    1c58:	a5 ec       	ldi	r26, 0xC5	; 197
    1c5a:	8a 2e       	mov	r8, r26
    1c5c:	91 2c       	mov	r9, r1
    1c5e:	8c 0e       	add	r8, r28
    1c60:	9d 1e       	adc	r9, r29
    1c62:	f3 e6       	ldi	r31, 0x63	; 99
    1c64:	af 2e       	mov	r10, r31
    1c66:	b1 2c       	mov	r11, r1
    1c68:	ac 0e       	add	r10, r28
    1c6a:	bd 1e       	adc	r11, r29
    1c6c:	22 e6       	ldi	r18, 0x62	; 98
    1c6e:	30 e0       	ldi	r19, 0x00	; 0
    1c70:	62 9f       	mul	r22, r18
    1c72:	d0 01       	movw	r26, r0
    1c74:	63 9f       	mul	r22, r19
    1c76:	b0 0d       	add	r27, r0
    1c78:	72 9f       	mul	r23, r18
    1c7a:	b0 0d       	add	r27, r0
    1c7c:	11 24       	eor	r1, r1
    1c7e:	a6 5b       	subi	r26, 0xB6	; 182
    1c80:	bb 4f       	sbci	r27, 0xFB	; 251
    1c82:	ae 01       	movw	r20, r28
    1c84:	49 5d       	subi	r20, 0xD9	; 217
    1c86:	5e 4f       	sbci	r21, 0xFE	; 254
    1c88:	c9 50       	subi	r28, 0x09	; 9
    1c8a:	de 4f       	sbci	r29, 0xFE	; 254
    1c8c:	59 83       	std	Y+1, r21	; 0x01
    1c8e:	48 83       	st	Y, r20
    1c90:	c7 5f       	subi	r28, 0xF7	; 247
    1c92:	d1 40       	sbci	r29, 0x01	; 1
    1c94:	c5 51       	subi	r28, 0x15	; 21
    1c96:	de 4f       	sbci	r29, 0xFE	; 254
    1c98:	c8 80       	ld	r12, Y
    1c9a:	d9 80       	ldd	r13, Y+1	; 0x01
    1c9c:	cb 5e       	subi	r28, 0xEB	; 235
    1c9e:	d1 40       	sbci	r29, 0x01	; 1
    1ca0:	e9 e8       	ldi	r30, 0x89	; 137
    1ca2:	ee 2e       	mov	r14, r30
    1ca4:	e1 e0       	ldi	r30, 0x01	; 1
    1ca6:	fe 2e       	mov	r15, r30
    1ca8:	ec 0e       	add	r14, r28
    1caa:	fd 1e       	adc	r15, r29
    1cac:	8e 01       	movw	r16, r28
    1cae:	0f 5f       	subi	r16, 0xFF	; 255
    1cb0:	1f 4f       	sbci	r17, 0xFF	; 255
							fCost[i] = fCostCalc(gCost[i], heuris[i]);
							parent[i] = current;
						} else {
							//Otherwise update path if the new one is better than
							//the already discovered path.
							if ((gCost[current] + map[current][i]) < gCost[i]) {
    1cb2:	2a 01       	movw	r4, r20
    1cb4:	48 0e       	add	r4, r24
    1cb6:	59 1e       	adc	r5, r25
			open[current] = 0, openSize--;
			closed[current] = 1, closedSize++;
			if (current == dest) break;		//Path to destination is available
			for (int i = 0; i < size; i++) {
				if (map[current][i] != INF) {
					if (closed[i] == 0) {	//if point is not on the closed list
    1cb8:	f4 01       	movw	r30, r8
    1cba:	80 81       	ld	r24, Z
    1cbc:	91 81       	ldd	r25, Z+1	; 0x01
    1cbe:	89 2b       	or	r24, r25
    1cc0:	09 f0       	breq	.+2      	; 0x1cc4 <dStar+0x258>
    1cc2:	42 c0       	rjmp	.+132    	; 0x1d48 <dStar+0x2dc>
						if (open[i] == 0) {
    1cc4:	f5 01       	movw	r30, r10
    1cc6:	80 81       	ld	r24, Z
    1cc8:	91 81       	ldd	r25, Z+1	; 0x01
    1cca:	4d 91       	ld	r20, X+
    1ccc:	5c 91       	ld	r21, X
    1cce:	11 97       	sbiw	r26, 0x01	; 1
    1cd0:	89 2b       	or	r24, r25
    1cd2:	e9 f4       	brne	.+58     	; 0x1d0e <dStar+0x2a2>
							//If point is not in the open as well as the closed
							//list, add the point to open list. Also calculate
							//gCost and fCost. Update parent to current for
							//retracing the path.
							open[i] = 1;
    1cd4:	21 e0       	ldi	r18, 0x01	; 1
    1cd6:	30 e0       	ldi	r19, 0x00	; 0
    1cd8:	31 83       	std	Z+1, r19	; 0x01
    1cda:	20 83       	st	Z, r18
							openSize++;
    1cdc:	08 94       	sec
    1cde:	61 1c       	adc	r6, r1
    1ce0:	71 1c       	adc	r7, r1
							gCost[i] = gCost[current] + map[current][i];
    1ce2:	f2 01       	movw	r30, r4
    1ce4:	80 81       	ld	r24, Z
    1ce6:	91 81       	ldd	r25, Z+1	; 0x01
    1ce8:	84 0f       	add	r24, r20
    1cea:	95 1f       	adc	r25, r21
    1cec:	c9 50       	subi	r28, 0x09	; 9
    1cee:	de 4f       	sbci	r29, 0xFE	; 254
    1cf0:	e8 81       	ld	r30, Y
    1cf2:	f9 81       	ldd	r31, Y+1	; 0x01
    1cf4:	c7 5f       	subi	r28, 0xF7	; 247
    1cf6:	d1 40       	sbci	r29, 0x01	; 1
    1cf8:	91 83       	std	Z+1, r25	; 0x01
    1cfa:	80 83       	st	Z, r24
							fCost[i] = fCostCalc(gCost[i], heuris[i]);
    1cfc:	f6 01       	movw	r30, r12
    1cfe:	20 81       	ld	r18, Z
    1d00:	31 81       	ldd	r19, Z+1	; 0x01
    1d02:	82 0f       	add	r24, r18
    1d04:	93 1f       	adc	r25, r19
    1d06:	f7 01       	movw	r30, r14
    1d08:	91 83       	std	Z+1, r25	; 0x01
    1d0a:	80 83       	st	Z, r24
    1d0c:	1a c0       	rjmp	.+52     	; 0x1d42 <dStar+0x2d6>
							parent[i] = current;
						} else {
							//Otherwise update path if the new one is better than
							//the already discovered path.
							if ((gCost[current] + map[current][i]) < gCost[i]) {
    1d0e:	f2 01       	movw	r30, r4
    1d10:	20 81       	ld	r18, Z
    1d12:	31 81       	ldd	r19, Z+1	; 0x01
    1d14:	24 0f       	add	r18, r20
    1d16:	35 1f       	adc	r19, r21
    1d18:	c9 50       	subi	r28, 0x09	; 9
    1d1a:	de 4f       	sbci	r29, 0xFE	; 254
    1d1c:	e8 81       	ld	r30, Y
    1d1e:	f9 81       	ldd	r31, Y+1	; 0x01
    1d20:	c7 5f       	subi	r28, 0xF7	; 247
    1d22:	d1 40       	sbci	r29, 0x01	; 1
    1d24:	80 81       	ld	r24, Z
    1d26:	91 81       	ldd	r25, Z+1	; 0x01
    1d28:	28 17       	cp	r18, r24
    1d2a:	39 07       	cpc	r19, r25
    1d2c:	6c f4       	brge	.+26     	; 0x1d48 <dStar+0x2dc>
								gCost[i] = gCost[current] + map[current][i];
    1d2e:	31 83       	std	Z+1, r19	; 0x01
    1d30:	20 83       	st	Z, r18
								fCost[i] = fCostCalc(gCost[i], heuris[i]);
    1d32:	f6 01       	movw	r30, r12
    1d34:	80 81       	ld	r24, Z
    1d36:	91 81       	ldd	r25, Z+1	; 0x01
    1d38:	28 0f       	add	r18, r24
    1d3a:	39 1f       	adc	r19, r25
    1d3c:	f7 01       	movw	r30, r14
    1d3e:	31 83       	std	Z+1, r19	; 0x01
    1d40:	20 83       	st	Z, r18
								parent[i] = current;
    1d42:	f8 01       	movw	r30, r16
    1d44:	71 83       	std	Z+1, r23	; 0x01
    1d46:	60 83       	st	Z, r22
    1d48:	22 e0       	ldi	r18, 0x02	; 2
    1d4a:	30 e0       	ldi	r19, 0x00	; 0
    1d4c:	82 0e       	add	r8, r18
    1d4e:	93 1e       	adc	r9, r19
    1d50:	a2 0e       	add	r10, r18
    1d52:	b3 1e       	adc	r11, r19
    1d54:	12 96       	adiw	r26, 0x02	; 2
    1d56:	c9 50       	subi	r28, 0x09	; 9
    1d58:	de 4f       	sbci	r29, 0xFE	; 254
    1d5a:	48 81       	ld	r20, Y
    1d5c:	59 81       	ldd	r21, Y+1	; 0x01
    1d5e:	c7 5f       	subi	r28, 0xF7	; 247
    1d60:	d1 40       	sbci	r29, 0x01	; 1
    1d62:	4e 5f       	subi	r20, 0xFE	; 254
    1d64:	5f 4f       	sbci	r21, 0xFF	; 255
    1d66:	c9 50       	subi	r28, 0x09	; 9
    1d68:	de 4f       	sbci	r29, 0xFE	; 254
    1d6a:	59 83       	std	Y+1, r21	; 0x01
    1d6c:	48 83       	st	Y, r20
    1d6e:	c7 5f       	subi	r28, 0xF7	; 247
    1d70:	d1 40       	sbci	r29, 0x01	; 1
    1d72:	c2 0e       	add	r12, r18
    1d74:	d3 1e       	adc	r13, r19
    1d76:	e2 0e       	add	r14, r18
    1d78:	f3 1e       	adc	r15, r19
    1d7a:	0e 5f       	subi	r16, 0xFE	; 254
    1d7c:	1f 4f       	sbci	r17, 0xFF	; 255
		while (openSize > 0) {
			current = extractMin (open, fCost, size);
			open[current] = 0, openSize--;
			closed[current] = 1, closedSize++;
			if (current == dest) break;		//Path to destination is available
			for (int i = 0; i < size; i++) {
    1d7e:	cb 50       	subi	r28, 0x0B	; 11
    1d80:	de 4f       	sbci	r29, 0xFE	; 254
    1d82:	88 81       	ld	r24, Y
    1d84:	99 81       	ldd	r25, Y+1	; 0x01
    1d86:	c5 5f       	subi	r28, 0xF5	; 245
    1d88:	d1 40       	sbci	r29, 0x01	; 1
    1d8a:	88 16       	cp	r8, r24
    1d8c:	99 06       	cpc	r9, r25
    1d8e:	09 f0       	breq	.+2      	; 0x1d92 <dStar+0x326>
    1d90:	93 cf       	rjmp	.-218    	; 0x1cb8 <dStar+0x24c>
			parent[i] = -1;
			gCost[i] = fCost[i] = INF;
		}
		open[source] = 1, openSize++;
		//Scan as long as the open list is not empty
		while (openSize > 0) {
    1d92:	61 14       	cp	r6, r1
    1d94:	71 04       	cpc	r7, r1
    1d96:	59 f0       	breq	.+22     	; 0x1dae <dStar+0x342>
    1d98:	8e 01       	movw	r16, r28
    1d9a:	0d 59       	subi	r16, 0x9D	; 157
    1d9c:	1f 4f       	sbci	r17, 0xFF	; 255
    1d9e:	de 01       	movw	r26, r28
    1da0:	a7 57       	subi	r26, 0x77	; 119
    1da2:	be 4f       	sbci	r27, 0xFE	; 254
    1da4:	40 e0       	ldi	r20, 0x00	; 0
    1da6:	50 e0       	ldi	r21, 0x00	; 0
    1da8:	6f ef       	ldi	r22, 0xFF	; 255
    1daa:	7f ef       	ldi	r23, 0xFF	; 255
    1dac:	10 cf       	rjmp	.-480    	; 0x1bce <dStar+0x162>
						}
					}
				}
			}
		}
		int *pathSize = (int*) malloc (sizeof(int));
    1dae:	82 e0       	ldi	r24, 0x02	; 2
    1db0:	90 e0       	ldi	r25, 0x00	; 0
    1db2:	0e 94 f7 15 	call	0x2bee	; 0x2bee <malloc>
    1db6:	8c 01       	movw	r16, r24
		*pathSize = 0;
    1db8:	fc 01       	movw	r30, r24
    1dba:	11 82       	std	Z+1, r1	; 0x01
    1dbc:	10 82       	st	Z, r1
		int *path = pathFind (parent, dest, pathSize);
    1dbe:	ce 01       	movw	r24, r28
    1dc0:	01 96       	adiw	r24, 0x01	; 1
    1dc2:	c3 51       	subi	r28, 0x13	; 19
    1dc4:	de 4f       	sbci	r29, 0xFE	; 254
    1dc6:	68 81       	ld	r22, Y
    1dc8:	79 81       	ldd	r23, Y+1	; 0x01
    1dca:	cd 5e       	subi	r28, 0xED	; 237
    1dcc:	d1 40       	sbci	r29, 0x01	; 1
    1dce:	a8 01       	movw	r20, r16
    1dd0:	0e 94 56 0b 	call	0x16ac	; 0x16ac <pathFind>
		int *result = Move (path, *pathSize);
    1dd4:	f8 01       	movw	r30, r16
    1dd6:	60 81       	ld	r22, Z
    1dd8:	71 81       	ldd	r23, Z+1	; 0x01
    1dda:	0e 94 db 0b 	call	0x17b6	; 0x17b6 <Move>
    1dde:	7c 01       	movw	r14, r24
		if (result[0] == 0) {
    1de0:	fc 01       	movw	r30, r24
    1de2:	80 81       	ld	r24, Z
    1de4:	91 81       	ldd	r25, Z+1	; 0x01
    1de6:	89 2b       	or	r24, r25
    1de8:	f9 f4       	brne	.+62     	; 0x1e28 <dStar+0x3bc>
			free (result);
    1dea:	c7 01       	movw	r24, r14
    1dec:	0e 94 a4 16 	call	0x2d48	; 0x2d48 <free>
		map[result[1]][result[2]] = map[result[2]][result[1]] = INF;
		free (heuris);
		free (pathSize);
		free (result);
	}
}
    1df0:	80 e0       	ldi	r24, 0x00	; 0
    1df2:	90 e0       	ldi	r25, 0x00	; 0
    1df4:	c8 50       	subi	r28, 0x08	; 8
    1df6:	de 4f       	sbci	r29, 0xFE	; 254
    1df8:	0f b6       	in	r0, 0x3f	; 63
    1dfa:	f8 94       	cli
    1dfc:	de bf       	out	0x3e, r29	; 62
    1dfe:	0f be       	out	0x3f, r0	; 63
    1e00:	cd bf       	out	0x3d, r28	; 61
    1e02:	cf 91       	pop	r28
    1e04:	df 91       	pop	r29
    1e06:	1f 91       	pop	r17
    1e08:	0f 91       	pop	r16
    1e0a:	ff 90       	pop	r15
    1e0c:	ef 90       	pop	r14
    1e0e:	df 90       	pop	r13
    1e10:	cf 90       	pop	r12
    1e12:	bf 90       	pop	r11
    1e14:	af 90       	pop	r10
    1e16:	9f 90       	pop	r9
    1e18:	8f 90       	pop	r8
    1e1a:	7f 90       	pop	r7
    1e1c:	6f 90       	pop	r6
    1e1e:	5f 90       	pop	r5
    1e20:	4f 90       	pop	r4
    1e22:	3f 90       	pop	r3
    1e24:	2f 90       	pop	r2
    1e26:	08 95       	ret
		if (result[0] == 0) {
			free (result);
			return 0;		//Movement complete
		}
		//Updates the map
		map[result[1]][result[2]] = map[result[2]][result[1]] = INF;
    1e28:	f7 01       	movw	r30, r14
    1e2a:	24 81       	ldd	r18, Z+4	; 0x04
    1e2c:	35 81       	ldd	r19, Z+5	; 0x05
    1e2e:	82 81       	ldd	r24, Z+2	; 0x02
    1e30:	93 81       	ldd	r25, Z+3	; 0x03
    1e32:	41 e3       	ldi	r20, 0x31	; 49
    1e34:	50 e0       	ldi	r21, 0x00	; 0
    1e36:	24 9f       	mul	r18, r20
    1e38:	f0 01       	movw	r30, r0
    1e3a:	25 9f       	mul	r18, r21
    1e3c:	f0 0d       	add	r31, r0
    1e3e:	34 9f       	mul	r19, r20
    1e40:	f0 0d       	add	r31, r0
    1e42:	11 24       	eor	r1, r1
    1e44:	e8 0f       	add	r30, r24
    1e46:	f9 1f       	adc	r31, r25
    1e48:	ee 0f       	add	r30, r30
    1e4a:	ff 1f       	adc	r31, r31
    1e4c:	e6 5b       	subi	r30, 0xB6	; 182
    1e4e:	fb 4f       	sbci	r31, 0xFB	; 251
    1e50:	40 ec       	ldi	r20, 0xC0	; 192
    1e52:	57 e2       	ldi	r21, 0x27	; 39
    1e54:	51 83       	std	Z+1, r21	; 0x01
    1e56:	40 83       	st	Z, r20
    1e58:	41 e3       	ldi	r20, 0x31	; 49
    1e5a:	50 e0       	ldi	r21, 0x00	; 0
    1e5c:	84 9f       	mul	r24, r20
    1e5e:	f0 01       	movw	r30, r0
    1e60:	85 9f       	mul	r24, r21
    1e62:	f0 0d       	add	r31, r0
    1e64:	94 9f       	mul	r25, r20
    1e66:	f0 0d       	add	r31, r0
    1e68:	11 24       	eor	r1, r1
    1e6a:	e2 0f       	add	r30, r18
    1e6c:	f3 1f       	adc	r31, r19
    1e6e:	ee 0f       	add	r30, r30
    1e70:	ff 1f       	adc	r31, r31
    1e72:	e6 5b       	subi	r30, 0xB6	; 182
    1e74:	fb 4f       	sbci	r31, 0xFB	; 251
    1e76:	80 ec       	ldi	r24, 0xC0	; 192
    1e78:	97 e2       	ldi	r25, 0x27	; 39
    1e7a:	91 83       	std	Z+1, r25	; 0x01
    1e7c:	80 83       	st	Z, r24
		free (heuris);
    1e7e:	c5 51       	subi	r28, 0x15	; 21
    1e80:	de 4f       	sbci	r29, 0xFE	; 254
    1e82:	88 81       	ld	r24, Y
    1e84:	99 81       	ldd	r25, Y+1	; 0x01
    1e86:	cb 5e       	subi	r28, 0xEB	; 235
    1e88:	d1 40       	sbci	r29, 0x01	; 1
    1e8a:	0e 94 a4 16 	call	0x2d48	; 0x2d48 <free>
		free (pathSize);
    1e8e:	c8 01       	movw	r24, r16
    1e90:	0e 94 a4 16 	call	0x2d48	; 0x2d48 <free>
		free (result);
    1e94:	c7 01       	movw	r24, r14
    1e96:	0e 94 a4 16 	call	0x2d48	; 0x2d48 <free>
    1e9a:	36 ce       	rjmp	.-916    	; 0x1b08 <dStar+0x9c>

00001e9c <simulation>:
		i++;
	}
	slave_size = j;
}

void simulation(int from, int to) {
    1e9c:	1f 93       	push	r17
    1e9e:	cf 93       	push	r28
    1ea0:	df 93       	push	r29

	dStar(from,to);
    1ea2:	0e 94 36 0d 	call	0x1a6c	; 0x1a6c <dStar>
    1ea6:	c0 e7       	ldi	r28, 0x70	; 112
    1ea8:	d1 e0       	ldi	r29, 0x01	; 1
    1eaa:	1e c0       	rjmp	.+60     	; 0x1ee8 <simulation+0x4c>
void motion_set (unsigned char Direction)
{
 unsigned char PortARestore = 0;

 Direction &= 0x0F; 		// removing upper nibbel for the protection
 PortARestore = PORTA; 		// reading the PORTA original status
    1eac:	82 b1       	in	r24, 0x02	; 2
 PortARestore &= 0xF0; 		// making lower direction nibbel to 0
    1eae:	80 7f       	andi	r24, 0xF0	; 240
 PortARestore |= Direction; // adding lower nibbel for forward command and restoring the PORTA status
 PORTA = PortARestore; 		// executing the command
    1eb0:	82 b9       	out	0x02, r24	; 2
}

//Function for velocity control
void velocity (unsigned char left_motor, unsigned char right_motor)
{
	OCR5AL = (unsigned char)left_motor;
    1eb2:	10 92 28 01 	sts	0x0128, r1
	OCR5BL = (unsigned char)right_motor;
    1eb6:	10 92 2a 01 	sts	0x012A, r1
	while (sequence_arr[Counter] == 0)
	{
		stop();
		velocity(0,0);
		lcd_cursor(1,1);
    1eba:	81 e0       	ldi	r24, 0x01	; 1
    1ebc:	61 e0       	ldi	r22, 0x01	; 1
    1ebe:	0e 94 50 07 	call	0xea0	; 0xea0 <lcd_cursor>
		lcd_string("   Waiting!!!   ");
    1ec2:	89 e8       	ldi	r24, 0x89	; 137
    1ec4:	92 e0       	ldi	r25, 0x02	; 2
    1ec6:	0e 94 43 07 	call	0xe86	; 0xe86 <lcd_string>
		lcd_cursor(2,1);
    1eca:	82 e0       	ldi	r24, 0x02	; 2
    1ecc:	61 e0       	ldi	r22, 0x01	; 1
    1ece:	0e 94 50 07 	call	0xea0	; 0xea0 <lcd_cursor>
		lcd_string(" For Master Bot!");
    1ed2:	8a e9       	ldi	r24, 0x9A	; 154
    1ed4:	92 e0       	ldi	r25, 0x02	; 2
    1ed6:	0e 94 43 07 	call	0xe86	; 0xe86 <lcd_string>
    1eda:	88 ee       	ldi	r24, 0xE8	; 232
    1edc:	93 e0       	ldi	r25, 0x03	; 3
    1ede:	fe 01       	movw	r30, r28
    1ee0:	31 97       	sbiw	r30, 0x01	; 1
    1ee2:	f1 f7       	brne	.-4      	; 0x1ee0 <simulation+0x44>
		{
			// wait 1/10 ms
			_delay_loop_2(((F_CPU) / 4e3) / 10);
			__ticks --;
    1ee4:	01 97       	sbiw	r24, 0x01	; 1
		__ticks = 1;
	else if (__tmp > 65535)
	{
		//	__ticks = requested delay in 1/10 ms
		__ticks = (uint16_t) (__ms * 10.0);
		while(__ticks)
    1ee6:	d9 f7       	brne	.-10     	; 0x1ede <simulation+0x42>
}

void simulation(int from, int to) {

	dStar(from,to);
	while (sequence_arr[Counter] == 0)
    1ee8:	80 91 48 04 	lds	r24, 0x0448
    1eec:	90 91 49 04 	lds	r25, 0x0449
    1ef0:	88 0f       	add	r24, r24
    1ef2:	99 1f       	adc	r25, r25
    1ef4:	e0 91 a4 17 	lds	r30, 0x17A4
    1ef8:	f0 91 a5 17 	lds	r31, 0x17A5
    1efc:	e8 0f       	add	r30, r24
    1efe:	f9 1f       	adc	r31, r25
    1f00:	80 81       	ld	r24, Z
    1f02:	91 81       	ldd	r25, Z+1	; 0x01
    1f04:	89 2b       	or	r24, r25
    1f06:	91 f2       	breq	.-92     	; 0x1eac <simulation+0x10>
		lcd_cursor(2,1);
		lcd_string(" For Master Bot!");
		_delay_ms(100);
	}

	lcd_cursor(1,1);
    1f08:	81 e0       	ldi	r24, 0x01	; 1
    1f0a:	61 e0       	ldi	r22, 0x01	; 1
    1f0c:	0e 94 50 07 	call	0xea0	; 0xea0 <lcd_cursor>
	lcd_string("MNP DETECTED ");
    1f10:	8b ea       	ldi	r24, 0xAB	; 171
    1f12:	92 e0       	ldi	r25, 0x02	; 2
    1f14:	0e 94 43 07 	call	0xe86	; 0xe86 <lcd_string>
	lcd_print(1,14,sequence_arr[Counter],2);
    1f18:	80 91 48 04 	lds	r24, 0x0448
    1f1c:	90 91 49 04 	lds	r25, 0x0449
    1f20:	88 0f       	add	r24, r24
    1f22:	99 1f       	adc	r25, r25
    1f24:	e0 91 a4 17 	lds	r30, 0x17A4
    1f28:	f0 91 a5 17 	lds	r31, 0x17A5
    1f2c:	e8 0f       	add	r30, r24
    1f2e:	f9 1f       	adc	r31, r25
    1f30:	40 81       	ld	r20, Z
    1f32:	51 81       	ldd	r21, Z+1	; 0x01
    1f34:	81 e0       	ldi	r24, 0x01	; 1
    1f36:	6e e0       	ldi	r22, 0x0E	; 14
    1f38:	22 e0       	ldi	r18, 0x02	; 2
    1f3a:	30 e0       	ldi	r19, 0x00	; 0
    1f3c:	0e 94 6c 07 	call	0xed8	; 0xed8 <lcd_print>
	lcd_cursor(2,1);
    1f40:	82 e0       	ldi	r24, 0x02	; 2
    1f42:	61 e0       	ldi	r22, 0x01	; 1
    1f44:	0e 94 50 07 	call	0xea0	; 0xea0 <lcd_cursor>
	lcd_string("Strinking Node!!");
    1f48:	89 eb       	ldi	r24, 0xB9	; 185
    1f4a:	92 e0       	ldi	r25, 0x02	; 2
    1f4c:	0e 94 43 07 	call	0xe86	; 0xe86 <lcd_string>
    1f50:	19 e6       	ldi	r17, 0x69	; 105
    1f52:	c0 e0       	ldi	r28, 0x00	; 0
    1f54:	d8 e4       	ldi	r29, 0x48	; 72

	unsigned char i = 0;
	for (i = 105; i <210; i++)
		{
			servo_3(i);
    1f56:	81 2f       	mov	r24, r17
    1f58:	0e 94 6c 08 	call	0x10d8	; 0x10d8 <servo_3>
    1f5c:	ce 01       	movw	r24, r28
    1f5e:	01 97       	sbiw	r24, 0x01	; 1
    1f60:	f1 f7       	brne	.-4      	; 0x1f5e <simulation+0xc2>
	lcd_print(1,14,sequence_arr[Counter],2);
	lcd_cursor(2,1);
	lcd_string("Strinking Node!!");

	unsigned char i = 0;
	for (i = 105; i <210; i++)
    1f62:	1f 5f       	subi	r17, 0xFF	; 255
    1f64:	12 3d       	cpi	r17, 0xD2	; 210
    1f66:	b9 f7       	brne	.-18     	; 0x1f56 <simulation+0xba>
    1f68:	84 ef       	ldi	r24, 0xF4	; 244
    1f6a:	91 e0       	ldi	r25, 0x01	; 1
    1f6c:	20 e7       	ldi	r18, 0x70	; 112
    1f6e:	31 e0       	ldi	r19, 0x01	; 1
    1f70:	f9 01       	movw	r30, r18
    1f72:	31 97       	sbiw	r30, 0x01	; 1
    1f74:	f1 f7       	brne	.-4      	; 0x1f72 <simulation+0xd6>
		{
			// wait 1/10 ms
			_delay_loop_2(((F_CPU) / 4e3) / 10);
			__ticks --;
    1f76:	01 97       	sbiw	r24, 0x01	; 1
		__ticks = 1;
	else if (__tmp > 65535)
	{
		//	__ticks = requested delay in 1/10 ms
		__ticks = (uint16_t) (__ms * 10.0);
		while(__ticks)
    1f78:	d9 f7       	brne	.-10     	; 0x1f70 <simulation+0xd4>
    1f7a:	c0 e0       	ldi	r28, 0x00	; 0
    1f7c:	d8 e4       	ldi	r29, 0x48	; 72
			 _delay_ms(5);
		}
	_delay_ms(50);
	for (i = 210; i >0; i--)
		{
			 servo_3(i);
    1f7e:	81 2f       	mov	r24, r17
    1f80:	0e 94 6c 08 	call	0x10d8	; 0x10d8 <servo_3>
    1f84:	ce 01       	movw	r24, r28
    1f86:	01 97       	sbiw	r24, 0x01	; 1
    1f88:	f1 f7       	brne	.-4      	; 0x1f86 <simulation+0xea>
		{
			servo_3(i);
			 _delay_ms(5);
		}
	_delay_ms(50);
	for (i = 210; i >0; i--)
    1f8a:	11 50       	subi	r17, 0x01	; 1
    1f8c:	c1 f7       	brne	.-16     	; 0x1f7e <simulation+0xe2>
    1f8e:	84 ef       	ldi	r24, 0xF4	; 244
    1f90:	91 e0       	ldi	r25, 0x01	; 1
    1f92:	20 e7       	ldi	r18, 0x70	; 112
    1f94:	31 e0       	ldi	r19, 0x01	; 1
    1f96:	f9 01       	movw	r30, r18
    1f98:	31 97       	sbiw	r30, 0x01	; 1
    1f9a:	f1 f7       	brne	.-4      	; 0x1f98 <simulation+0xfc>
		{
			// wait 1/10 ms
			_delay_loop_2(((F_CPU) / 4e3) / 10);
			__ticks --;
    1f9c:	01 97       	sbiw	r24, 0x01	; 1
		__ticks = 1;
	else if (__tmp > 65535)
	{
		//	__ticks = requested delay in 1/10 ms
		__ticks = (uint16_t) (__ms * 10.0);
		while(__ticks)
    1f9e:	d9 f7       	brne	.-10     	; 0x1f96 <simulation+0xfa>
    1fa0:	c0 e0       	ldi	r28, 0x00	; 0
    1fa2:	d0 e9       	ldi	r29, 0x90	; 144
		}
 	 _delay_ms(50);

	for (i = 0; i <105; i++)
		{
			servo_3(i);
    1fa4:	81 2f       	mov	r24, r17
    1fa6:	0e 94 6c 08 	call	0x10d8	; 0x10d8 <servo_3>
    1faa:	ce 01       	movw	r24, r28
    1fac:	01 97       	sbiw	r24, 0x01	; 1
    1fae:	f1 f7       	brne	.-4      	; 0x1fac <simulation+0x110>
			 servo_3(i);
			 _delay_ms(5);
		}
 	 _delay_ms(50);

	for (i = 0; i <105; i++)
    1fb0:	1f 5f       	subi	r17, 0xFF	; 255
    1fb2:	19 36       	cpi	r17, 0x69	; 105
    1fb4:	b9 f7       	brne	.-18     	; 0x1fa4 <simulation+0x108>
		{
			servo_3(i);
			_delay_ms(10);
		}

	++Counter;
    1fb6:	80 91 48 04 	lds	r24, 0x0448
    1fba:	90 91 49 04 	lds	r25, 0x0449
    1fbe:	01 96       	adiw	r24, 0x01	; 1
    1fc0:	90 93 49 04 	sts	0x0449, r25
    1fc4:	80 93 48 04 	sts	0x0448, r24
	UDR0 = Counter;
    1fc8:	80 93 c6 00 	sts	0x00C6, r24
}
    1fcc:	df 91       	pop	r29
    1fce:	cf 91       	pop	r28
    1fd0:	1f 91       	pop	r17
    1fd2:	08 95       	ret

00001fd4 <main>:
	uart2_init(); //Initailize UART1 for serial communiaction
 	sei();   //Enables the global interrupts
}
//Main Function
int main(void)
{
    1fd4:	0f 93       	push	r16
    1fd6:	1f 93       	push	r17
    1fd8:	cf 93       	push	r28
    1fda:	df 93       	push	r29
	initial_devices();
    1fdc:	0e 94 b2 08 	call	0x1164	; 0x1164 <initial_devices>
	lcd_set_4bit();
    1fe0:	0e 94 b5 06 	call	0xd6a	; 0xd6a <lcd_set_4bit>
	lcd_init();
    1fe4:	0e 94 08 07 	call	0xe10	; 0xe10 <lcd_init>
	servo_3(105);
    1fe8:	89 e6       	ldi	r24, 0x69	; 105
    1fea:	0e 94 6c 08 	call	0x10d8	; 0x10d8 <servo_3>
	while(1) {
		if (count == arr_size)
    1fee:	20 91 1f 03 	lds	r18, 0x031F
    1ff2:	30 91 20 03 	lds	r19, 0x0320
    1ff6:	80 91 44 04 	lds	r24, 0x0444
    1ffa:	90 91 45 04 	lds	r25, 0x0445
    1ffe:	28 17       	cp	r18, r24
    2000:	39 07       	cpc	r19, r25
    2002:	09 f0       	breq	.+2      	; 0x2006 <main+0x32>
    2004:	6f c0       	rjmp	.+222    	; 0x20e4 <main+0x110>
		{
			lcd_cursor(1,1);
    2006:	81 e0       	ldi	r24, 0x01	; 1
    2008:	61 e0       	ldi	r22, 0x01	; 1
    200a:	0e 94 50 07 	call	0xea0	; 0xea0 <lcd_cursor>
			lcd_string("      Array     ");
    200e:	8a ec       	ldi	r24, 0xCA	; 202
    2010:	92 e0       	ldi	r25, 0x02	; 2
    2012:	0e 94 43 07 	call	0xe86	; 0xe86 <lcd_string>
			lcd_cursor(2,1);
    2016:	82 e0       	ldi	r24, 0x02	; 2
    2018:	61 e0       	ldi	r22, 0x01	; 1
    201a:	0e 94 50 07 	call	0xea0	; 0xea0 <lcd_cursor>
			lcd_string("   Recieved!!!  ");
    201e:	8b ed       	ldi	r24, 0xDB	; 219
    2020:	92 e0       	ldi	r25, 0x02	; 2
    2022:	0e 94 43 07 	call	0xe86	; 0xe86 <lcd_string>
    2026:	80 e2       	ldi	r24, 0x20	; 32
    2028:	9e e4       	ldi	r25, 0x4E	; 78
    202a:	20 e7       	ldi	r18, 0x70	; 112
    202c:	31 e0       	ldi	r19, 0x01	; 1
    202e:	f9 01       	movw	r30, r18
    2030:	31 97       	sbiw	r30, 0x01	; 1
    2032:	f1 f7       	brne	.-4      	; 0x2030 <main+0x5c>
		{
			// wait 1/10 ms
			_delay_loop_2(((F_CPU) / 4e3) / 10);
			__ticks --;
    2034:	01 97       	sbiw	r24, 0x01	; 1
		__ticks = 1;
	else if (__tmp > 65535)
	{
		//	__ticks = requested delay in 1/10 ms
		__ticks = (uint16_t) (__ms * 10.0);
		while(__ticks)
    2036:	d9 f7       	brne	.-10     	; 0x202e <main+0x5a>
			_delay_ms(2000);	
			count++;
    2038:	80 91 1f 03 	lds	r24, 0x031F
    203c:	90 91 20 03 	lds	r25, 0x0320
    2040:	01 96       	adiw	r24, 0x01	; 1
    2042:	90 93 20 03 	sts	0x0320, r25
    2046:	80 93 1f 03 	sts	0x031F, r24
			remove_zero();
    204a:	0e 94 86 08 	call	0x110c	; 0x110c <remove_zero>
    204e:	c6 ea       	ldi	r28, 0xA6	; 166
    2050:	d7 e1       	ldi	r29, 0x17	; 23
    2052:	00 e0       	ldi	r16, 0x00	; 0
    2054:	10 e0       	ldi	r17, 0x00	; 0
    2056:	09 c0       	rjmp	.+18     	; 0x206a <main+0x96>
			for (int i = 0; i < slave_size - 1; i++) {
				simulation (arr_slave[i],arr_slave[i+1]);
    2058:	0f 5f       	subi	r16, 0xFF	; 255
    205a:	1f 4f       	sbci	r17, 0xFF	; 255
    205c:	6a 81       	ldd	r22, Y+2	; 0x02
    205e:	7b 81       	ldd	r23, Y+3	; 0x03
    2060:	88 81       	ld	r24, Y
    2062:	99 81       	ldd	r25, Y+1	; 0x01
    2064:	0e 94 4e 0f 	call	0x1e9c	; 0x1e9c <simulation>
    2068:	22 96       	adiw	r28, 0x02	; 2
			lcd_cursor(2,1);
			lcd_string("   Recieved!!!  ");
			_delay_ms(2000);	
			count++;
			remove_zero();
			for (int i = 0; i < slave_size - 1; i++) {
    206a:	80 91 46 04 	lds	r24, 0x0446
    206e:	90 91 47 04 	lds	r25, 0x0447
    2072:	01 97       	sbiw	r24, 0x01	; 1
    2074:	08 17       	cp	r16, r24
    2076:	19 07       	cpc	r17, r25
    2078:	7c f3       	brlt	.-34     	; 0x2058 <main+0x84>
    207a:	20 e0       	ldi	r18, 0x00	; 0
    207c:	30 e0       	ldi	r19, 0x00	; 0
    207e:	40 e7       	ldi	r20, 0x70	; 112
    2080:	51 e0       	ldi	r21, 0x01	; 1
}

void buzzer_on (void)
{
 unsigned char port_restore = 0;
 port_restore = PINC;
    2082:	86 b1       	in	r24, 0x06	; 6
 port_restore = port_restore | 0x08;
    2084:	88 60       	ori	r24, 0x08	; 8
 PORTC = port_restore;
    2086:	88 b9       	out	0x08, r24	; 8
    2088:	80 ed       	ldi	r24, 0xD0	; 208
    208a:	97 e0       	ldi	r25, 0x07	; 7
    208c:	fa 01       	movw	r30, r20
    208e:	31 97       	sbiw	r30, 0x01	; 1
    2090:	f1 f7       	brne	.-4      	; 0x208e <main+0xba>
		{
			// wait 1/10 ms
			_delay_loop_2(((F_CPU) / 4e3) / 10);
			__ticks --;
    2092:	01 97       	sbiw	r24, 0x01	; 1
		__ticks = 1;
	else if (__tmp > 65535)
	{
		//	__ticks = requested delay in 1/10 ms
		__ticks = (uint16_t) (__ms * 10.0);
		while(__ticks)
    2094:	d9 f7       	brne	.-10     	; 0x208c <main+0xb8>
}

void buzzer_off (void)
{
 unsigned char port_restore = 0;
 port_restore = PINC;
    2096:	86 b1       	in	r24, 0x06	; 6
 port_restore = port_restore & 0xF7;
    2098:	87 7f       	andi	r24, 0xF7	; 247
 PORTC = port_restore;
    209a:	88 b9       	out	0x08, r24	; 8
    209c:	84 ef       	ldi	r24, 0xF4	; 244
    209e:	91 e0       	ldi	r25, 0x01	; 1
    20a0:	fa 01       	movw	r30, r20
    20a2:	31 97       	sbiw	r30, 0x01	; 1
    20a4:	f1 f7       	brne	.-4      	; 0x20a2 <main+0xce>
		{
			// wait 1/10 ms
			_delay_loop_2(((F_CPU) / 4e3) / 10);
			__ticks --;
    20a6:	01 97       	sbiw	r24, 0x01	; 1
		__ticks = 1;
	else if (__tmp > 65535)
	{
		//	__ticks = requested delay in 1/10 ms
		__ticks = (uint16_t) (__ms * 10.0);
		while(__ticks)
    20a8:	d9 f7       	brne	.-10     	; 0x20a0 <main+0xcc>
			count++;
			remove_zero();
			for (int i = 0; i < slave_size - 1; i++) {
				simulation (arr_slave[i],arr_slave[i+1]);
			}
			for ( int i = 0; i < 20; i++) {
    20aa:	2f 5f       	subi	r18, 0xFF	; 255
    20ac:	3f 4f       	sbci	r19, 0xFF	; 255
    20ae:	24 31       	cpi	r18, 0x14	; 20
    20b0:	31 05       	cpc	r19, r1
    20b2:	39 f7       	brne	.-50     	; 0x2082 <main+0xae>
void motion_set (unsigned char Direction)
{
 unsigned char PortARestore = 0;

 Direction &= 0x0F; 		// removing upper nibbel for the protection
 PortARestore = PORTA; 		// reading the PORTA original status
    20b4:	82 b1       	in	r24, 0x02	; 2
 PortARestore &= 0xF0; 		// making lower direction nibbel to 0
    20b6:	80 7f       	andi	r24, 0xF0	; 240
 PortARestore |= Direction; // adding lower nibbel for forward command and restoring the PORTA status
 PORTA = PortARestore; 		// executing the command
    20b8:	82 b9       	out	0x02, r24	; 2
}

//Function for velocity control
void velocity (unsigned char left_motor, unsigned char right_motor)
{
	OCR5AL = (unsigned char)left_motor;
    20ba:	10 92 28 01 	sts	0x0128, r1
	OCR5BL = (unsigned char)right_motor;
    20be:	10 92 2a 01 	sts	0x012A, r1
				_delay_ms(50);
			}
			while(1) {
				stop();
				velocity(0,0);
				lcd_cursor(1,1);
    20c2:	81 e0       	ldi	r24, 0x01	; 1
    20c4:	61 e0       	ldi	r22, 0x01	; 1
    20c6:	0e 94 50 07 	call	0xea0	; 0xea0 <lcd_cursor>
				lcd_string("      Task      ");
    20ca:	8c ee       	ldi	r24, 0xEC	; 236
    20cc:	92 e0       	ldi	r25, 0x02	; 2
    20ce:	0e 94 43 07 	call	0xe86	; 0xe86 <lcd_string>
				lcd_cursor(2,1);
    20d2:	82 e0       	ldi	r24, 0x02	; 2
    20d4:	61 e0       	ldi	r22, 0x01	; 1
    20d6:	0e 94 50 07 	call	0xea0	; 0xea0 <lcd_cursor>
				lcd_string("  Completed!!!  ");
    20da:	8d ef       	ldi	r24, 0xFD	; 253
    20dc:	92 e0       	ldi	r25, 0x02	; 2
    20de:	0e 94 43 07 	call	0xe86	; 0xe86 <lcd_string>
    20e2:	e8 cf       	rjmp	.-48     	; 0x20b4 <main+0xe0>
			}
		}
		lcd_cursor(1,1);
    20e4:	81 e0       	ldi	r24, 0x01	; 1
    20e6:	61 e0       	ldi	r22, 0x01	; 1
    20e8:	0e 94 50 07 	call	0xea0	; 0xea0 <lcd_cursor>
		lcd_string("      Task      ");
    20ec:	8c ee       	ldi	r24, 0xEC	; 236
    20ee:	92 e0       	ldi	r25, 0x02	; 2
    20f0:	0e 94 43 07 	call	0xe86	; 0xe86 <lcd_string>
		lcd_cursor(2,1);
    20f4:	82 e0       	ldi	r24, 0x02	; 2
    20f6:	61 e0       	ldi	r22, 0x01	; 1
    20f8:	0e 94 50 07 	call	0xea0	; 0xea0 <lcd_cursor>
		lcd_string("  Initiated!!!  ");
    20fc:	8e e0       	ldi	r24, 0x0E	; 14
    20fe:	93 e0       	ldi	r25, 0x03	; 3
    2100:	0e 94 43 07 	call	0xe86	; 0xe86 <lcd_string>
    2104:	74 cf       	rjmp	.-280    	; 0x1fee <main+0x1a>

00002106 <__fixunssfsi>:
    2106:	ef 92       	push	r14
    2108:	ff 92       	push	r15
    210a:	0f 93       	push	r16
    210c:	1f 93       	push	r17
    210e:	7b 01       	movw	r14, r22
    2110:	8c 01       	movw	r16, r24
    2112:	20 e0       	ldi	r18, 0x00	; 0
    2114:	30 e0       	ldi	r19, 0x00	; 0
    2116:	40 e0       	ldi	r20, 0x00	; 0
    2118:	5f e4       	ldi	r21, 0x4F	; 79
    211a:	0e 94 05 13 	call	0x260a	; 0x260a <__gesf2>
    211e:	88 23       	and	r24, r24
    2120:	8c f0       	brlt	.+34     	; 0x2144 <__fixunssfsi+0x3e>
    2122:	c8 01       	movw	r24, r16
    2124:	b7 01       	movw	r22, r14
    2126:	20 e0       	ldi	r18, 0x00	; 0
    2128:	30 e0       	ldi	r19, 0x00	; 0
    212a:	40 e0       	ldi	r20, 0x00	; 0
    212c:	5f e4       	ldi	r21, 0x4F	; 79
    212e:	0e 94 fb 11 	call	0x23f6	; 0x23f6 <__subsf3>
    2132:	0e 94 35 13 	call	0x266a	; 0x266a <__fixsfsi>
    2136:	9b 01       	movw	r18, r22
    2138:	ac 01       	movw	r20, r24
    213a:	20 50       	subi	r18, 0x00	; 0
    213c:	30 40       	sbci	r19, 0x00	; 0
    213e:	40 40       	sbci	r20, 0x00	; 0
    2140:	50 48       	sbci	r21, 0x80	; 128
    2142:	06 c0       	rjmp	.+12     	; 0x2150 <__fixunssfsi+0x4a>
    2144:	c8 01       	movw	r24, r16
    2146:	b7 01       	movw	r22, r14
    2148:	0e 94 35 13 	call	0x266a	; 0x266a <__fixsfsi>
    214c:	9b 01       	movw	r18, r22
    214e:	ac 01       	movw	r20, r24
    2150:	b9 01       	movw	r22, r18
    2152:	ca 01       	movw	r24, r20
    2154:	1f 91       	pop	r17
    2156:	0f 91       	pop	r16
    2158:	ff 90       	pop	r15
    215a:	ef 90       	pop	r14
    215c:	08 95       	ret

0000215e <_fpadd_parts>:
    215e:	a0 e0       	ldi	r26, 0x00	; 0
    2160:	b0 e0       	ldi	r27, 0x00	; 0
    2162:	e5 eb       	ldi	r30, 0xB5	; 181
    2164:	f0 e1       	ldi	r31, 0x10	; 16
    2166:	0c 94 10 17 	jmp	0x2e20	; 0x2e20 <__prologue_saves__>
    216a:	dc 01       	movw	r26, r24
    216c:	2b 01       	movw	r4, r22
    216e:	fa 01       	movw	r30, r20
    2170:	9c 91       	ld	r25, X
    2172:	92 30       	cpi	r25, 0x02	; 2
    2174:	08 f4       	brcc	.+2      	; 0x2178 <_fpadd_parts+0x1a>
    2176:	39 c1       	rjmp	.+626    	; 0x23ea <__stack+0x1eb>
    2178:	eb 01       	movw	r28, r22
    217a:	88 81       	ld	r24, Y
    217c:	82 30       	cpi	r24, 0x02	; 2
    217e:	08 f4       	brcc	.+2      	; 0x2182 <_fpadd_parts+0x24>
    2180:	33 c1       	rjmp	.+614    	; 0x23e8 <__stack+0x1e9>
    2182:	94 30       	cpi	r25, 0x04	; 4
    2184:	69 f4       	brne	.+26     	; 0x21a0 <_fpadd_parts+0x42>
    2186:	84 30       	cpi	r24, 0x04	; 4
    2188:	09 f0       	breq	.+2      	; 0x218c <_fpadd_parts+0x2e>
    218a:	2f c1       	rjmp	.+606    	; 0x23ea <__stack+0x1eb>
    218c:	11 96       	adiw	r26, 0x01	; 1
    218e:	9c 91       	ld	r25, X
    2190:	11 97       	sbiw	r26, 0x01	; 1
    2192:	89 81       	ldd	r24, Y+1	; 0x01
    2194:	98 17       	cp	r25, r24
    2196:	09 f4       	brne	.+2      	; 0x219a <_fpadd_parts+0x3c>
    2198:	28 c1       	rjmp	.+592    	; 0x23ea <__stack+0x1eb>
    219a:	a1 e2       	ldi	r26, 0x21	; 33
    219c:	b3 e0       	ldi	r27, 0x03	; 3
    219e:	25 c1       	rjmp	.+586    	; 0x23ea <__stack+0x1eb>
    21a0:	84 30       	cpi	r24, 0x04	; 4
    21a2:	09 f4       	brne	.+2      	; 0x21a6 <_fpadd_parts+0x48>
    21a4:	21 c1       	rjmp	.+578    	; 0x23e8 <__stack+0x1e9>
    21a6:	82 30       	cpi	r24, 0x02	; 2
    21a8:	a9 f4       	brne	.+42     	; 0x21d4 <_fpadd_parts+0x76>
    21aa:	92 30       	cpi	r25, 0x02	; 2
    21ac:	09 f0       	breq	.+2      	; 0x21b0 <_fpadd_parts+0x52>
    21ae:	1d c1       	rjmp	.+570    	; 0x23ea <__stack+0x1eb>
    21b0:	9a 01       	movw	r18, r20
    21b2:	ad 01       	movw	r20, r26
    21b4:	88 e0       	ldi	r24, 0x08	; 8
    21b6:	ea 01       	movw	r28, r20
    21b8:	09 90       	ld	r0, Y+
    21ba:	ae 01       	movw	r20, r28
    21bc:	e9 01       	movw	r28, r18
    21be:	09 92       	st	Y+, r0
    21c0:	9e 01       	movw	r18, r28
    21c2:	81 50       	subi	r24, 0x01	; 1
    21c4:	c1 f7       	brne	.-16     	; 0x21b6 <_fpadd_parts+0x58>
    21c6:	e2 01       	movw	r28, r4
    21c8:	89 81       	ldd	r24, Y+1	; 0x01
    21ca:	11 96       	adiw	r26, 0x01	; 1
    21cc:	9c 91       	ld	r25, X
    21ce:	89 23       	and	r24, r25
    21d0:	81 83       	std	Z+1, r24	; 0x01
    21d2:	08 c1       	rjmp	.+528    	; 0x23e4 <__stack+0x1e5>
    21d4:	92 30       	cpi	r25, 0x02	; 2
    21d6:	09 f4       	brne	.+2      	; 0x21da <_fpadd_parts+0x7c>
    21d8:	07 c1       	rjmp	.+526    	; 0x23e8 <__stack+0x1e9>
    21da:	12 96       	adiw	r26, 0x02	; 2
    21dc:	2d 90       	ld	r2, X+
    21de:	3c 90       	ld	r3, X
    21e0:	13 97       	sbiw	r26, 0x03	; 3
    21e2:	eb 01       	movw	r28, r22
    21e4:	8a 81       	ldd	r24, Y+2	; 0x02
    21e6:	9b 81       	ldd	r25, Y+3	; 0x03
    21e8:	14 96       	adiw	r26, 0x04	; 4
    21ea:	ad 90       	ld	r10, X+
    21ec:	bd 90       	ld	r11, X+
    21ee:	cd 90       	ld	r12, X+
    21f0:	dc 90       	ld	r13, X
    21f2:	17 97       	sbiw	r26, 0x07	; 7
    21f4:	ec 80       	ldd	r14, Y+4	; 0x04
    21f6:	fd 80       	ldd	r15, Y+5	; 0x05
    21f8:	0e 81       	ldd	r16, Y+6	; 0x06
    21fa:	1f 81       	ldd	r17, Y+7	; 0x07
    21fc:	91 01       	movw	r18, r2
    21fe:	28 1b       	sub	r18, r24
    2200:	39 0b       	sbc	r19, r25
    2202:	b9 01       	movw	r22, r18
    2204:	37 ff       	sbrs	r19, 7
    2206:	04 c0       	rjmp	.+8      	; 0x2210 <__stack+0x11>
    2208:	66 27       	eor	r22, r22
    220a:	77 27       	eor	r23, r23
    220c:	62 1b       	sub	r22, r18
    220e:	73 0b       	sbc	r23, r19
    2210:	60 32       	cpi	r22, 0x20	; 32
    2212:	71 05       	cpc	r23, r1
    2214:	0c f0       	brlt	.+2      	; 0x2218 <__stack+0x19>
    2216:	61 c0       	rjmp	.+194    	; 0x22da <__stack+0xdb>
    2218:	12 16       	cp	r1, r18
    221a:	13 06       	cpc	r1, r19
    221c:	6c f5       	brge	.+90     	; 0x2278 <__stack+0x79>
    221e:	37 01       	movw	r6, r14
    2220:	48 01       	movw	r8, r16
    2222:	06 2e       	mov	r0, r22
    2224:	04 c0       	rjmp	.+8      	; 0x222e <__stack+0x2f>
    2226:	96 94       	lsr	r9
    2228:	87 94       	ror	r8
    222a:	77 94       	ror	r7
    222c:	67 94       	ror	r6
    222e:	0a 94       	dec	r0
    2230:	d2 f7       	brpl	.-12     	; 0x2226 <__stack+0x27>
    2232:	21 e0       	ldi	r18, 0x01	; 1
    2234:	30 e0       	ldi	r19, 0x00	; 0
    2236:	40 e0       	ldi	r20, 0x00	; 0
    2238:	50 e0       	ldi	r21, 0x00	; 0
    223a:	04 c0       	rjmp	.+8      	; 0x2244 <__stack+0x45>
    223c:	22 0f       	add	r18, r18
    223e:	33 1f       	adc	r19, r19
    2240:	44 1f       	adc	r20, r20
    2242:	55 1f       	adc	r21, r21
    2244:	6a 95       	dec	r22
    2246:	d2 f7       	brpl	.-12     	; 0x223c <__stack+0x3d>
    2248:	21 50       	subi	r18, 0x01	; 1
    224a:	30 40       	sbci	r19, 0x00	; 0
    224c:	40 40       	sbci	r20, 0x00	; 0
    224e:	50 40       	sbci	r21, 0x00	; 0
    2250:	2e 21       	and	r18, r14
    2252:	3f 21       	and	r19, r15
    2254:	40 23       	and	r20, r16
    2256:	51 23       	and	r21, r17
    2258:	21 15       	cp	r18, r1
    225a:	31 05       	cpc	r19, r1
    225c:	41 05       	cpc	r20, r1
    225e:	51 05       	cpc	r21, r1
    2260:	21 f0       	breq	.+8      	; 0x226a <__stack+0x6b>
    2262:	21 e0       	ldi	r18, 0x01	; 1
    2264:	30 e0       	ldi	r19, 0x00	; 0
    2266:	40 e0       	ldi	r20, 0x00	; 0
    2268:	50 e0       	ldi	r21, 0x00	; 0
    226a:	79 01       	movw	r14, r18
    226c:	8a 01       	movw	r16, r20
    226e:	e6 28       	or	r14, r6
    2270:	f7 28       	or	r15, r7
    2272:	08 29       	or	r16, r8
    2274:	19 29       	or	r17, r9
    2276:	3c c0       	rjmp	.+120    	; 0x22f0 <__stack+0xf1>
    2278:	23 2b       	or	r18, r19
    227a:	d1 f1       	breq	.+116    	; 0x22f0 <__stack+0xf1>
    227c:	26 0e       	add	r2, r22
    227e:	37 1e       	adc	r3, r23
    2280:	35 01       	movw	r6, r10
    2282:	46 01       	movw	r8, r12
    2284:	06 2e       	mov	r0, r22
    2286:	04 c0       	rjmp	.+8      	; 0x2290 <__stack+0x91>
    2288:	96 94       	lsr	r9
    228a:	87 94       	ror	r8
    228c:	77 94       	ror	r7
    228e:	67 94       	ror	r6
    2290:	0a 94       	dec	r0
    2292:	d2 f7       	brpl	.-12     	; 0x2288 <__stack+0x89>
    2294:	21 e0       	ldi	r18, 0x01	; 1
    2296:	30 e0       	ldi	r19, 0x00	; 0
    2298:	40 e0       	ldi	r20, 0x00	; 0
    229a:	50 e0       	ldi	r21, 0x00	; 0
    229c:	04 c0       	rjmp	.+8      	; 0x22a6 <__stack+0xa7>
    229e:	22 0f       	add	r18, r18
    22a0:	33 1f       	adc	r19, r19
    22a2:	44 1f       	adc	r20, r20
    22a4:	55 1f       	adc	r21, r21
    22a6:	6a 95       	dec	r22
    22a8:	d2 f7       	brpl	.-12     	; 0x229e <__stack+0x9f>
    22aa:	21 50       	subi	r18, 0x01	; 1
    22ac:	30 40       	sbci	r19, 0x00	; 0
    22ae:	40 40       	sbci	r20, 0x00	; 0
    22b0:	50 40       	sbci	r21, 0x00	; 0
    22b2:	2a 21       	and	r18, r10
    22b4:	3b 21       	and	r19, r11
    22b6:	4c 21       	and	r20, r12
    22b8:	5d 21       	and	r21, r13
    22ba:	21 15       	cp	r18, r1
    22bc:	31 05       	cpc	r19, r1
    22be:	41 05       	cpc	r20, r1
    22c0:	51 05       	cpc	r21, r1
    22c2:	21 f0       	breq	.+8      	; 0x22cc <__stack+0xcd>
    22c4:	21 e0       	ldi	r18, 0x01	; 1
    22c6:	30 e0       	ldi	r19, 0x00	; 0
    22c8:	40 e0       	ldi	r20, 0x00	; 0
    22ca:	50 e0       	ldi	r21, 0x00	; 0
    22cc:	59 01       	movw	r10, r18
    22ce:	6a 01       	movw	r12, r20
    22d0:	a6 28       	or	r10, r6
    22d2:	b7 28       	or	r11, r7
    22d4:	c8 28       	or	r12, r8
    22d6:	d9 28       	or	r13, r9
    22d8:	0b c0       	rjmp	.+22     	; 0x22f0 <__stack+0xf1>
    22da:	82 15       	cp	r24, r2
    22dc:	93 05       	cpc	r25, r3
    22de:	2c f0       	brlt	.+10     	; 0x22ea <__stack+0xeb>
    22e0:	1c 01       	movw	r2, r24
    22e2:	aa 24       	eor	r10, r10
    22e4:	bb 24       	eor	r11, r11
    22e6:	65 01       	movw	r12, r10
    22e8:	03 c0       	rjmp	.+6      	; 0x22f0 <__stack+0xf1>
    22ea:	ee 24       	eor	r14, r14
    22ec:	ff 24       	eor	r15, r15
    22ee:	87 01       	movw	r16, r14
    22f0:	11 96       	adiw	r26, 0x01	; 1
    22f2:	9c 91       	ld	r25, X
    22f4:	d2 01       	movw	r26, r4
    22f6:	11 96       	adiw	r26, 0x01	; 1
    22f8:	8c 91       	ld	r24, X
    22fa:	98 17       	cp	r25, r24
    22fc:	09 f4       	brne	.+2      	; 0x2300 <__stack+0x101>
    22fe:	45 c0       	rjmp	.+138    	; 0x238a <__stack+0x18b>
    2300:	99 23       	and	r25, r25
    2302:	39 f0       	breq	.+14     	; 0x2312 <__stack+0x113>
    2304:	a8 01       	movw	r20, r16
    2306:	97 01       	movw	r18, r14
    2308:	2a 19       	sub	r18, r10
    230a:	3b 09       	sbc	r19, r11
    230c:	4c 09       	sbc	r20, r12
    230e:	5d 09       	sbc	r21, r13
    2310:	06 c0       	rjmp	.+12     	; 0x231e <__stack+0x11f>
    2312:	a6 01       	movw	r20, r12
    2314:	95 01       	movw	r18, r10
    2316:	2e 19       	sub	r18, r14
    2318:	3f 09       	sbc	r19, r15
    231a:	40 0b       	sbc	r20, r16
    231c:	51 0b       	sbc	r21, r17
    231e:	57 fd       	sbrc	r21, 7
    2320:	08 c0       	rjmp	.+16     	; 0x2332 <__stack+0x133>
    2322:	11 82       	std	Z+1, r1	; 0x01
    2324:	33 82       	std	Z+3, r3	; 0x03
    2326:	22 82       	std	Z+2, r2	; 0x02
    2328:	24 83       	std	Z+4, r18	; 0x04
    232a:	35 83       	std	Z+5, r19	; 0x05
    232c:	46 83       	std	Z+6, r20	; 0x06
    232e:	57 83       	std	Z+7, r21	; 0x07
    2330:	1d c0       	rjmp	.+58     	; 0x236c <__stack+0x16d>
    2332:	81 e0       	ldi	r24, 0x01	; 1
    2334:	81 83       	std	Z+1, r24	; 0x01
    2336:	33 82       	std	Z+3, r3	; 0x03
    2338:	22 82       	std	Z+2, r2	; 0x02
    233a:	88 27       	eor	r24, r24
    233c:	99 27       	eor	r25, r25
    233e:	dc 01       	movw	r26, r24
    2340:	82 1b       	sub	r24, r18
    2342:	93 0b       	sbc	r25, r19
    2344:	a4 0b       	sbc	r26, r20
    2346:	b5 0b       	sbc	r27, r21
    2348:	84 83       	std	Z+4, r24	; 0x04
    234a:	95 83       	std	Z+5, r25	; 0x05
    234c:	a6 83       	std	Z+6, r26	; 0x06
    234e:	b7 83       	std	Z+7, r27	; 0x07
    2350:	0d c0       	rjmp	.+26     	; 0x236c <__stack+0x16d>
    2352:	22 0f       	add	r18, r18
    2354:	33 1f       	adc	r19, r19
    2356:	44 1f       	adc	r20, r20
    2358:	55 1f       	adc	r21, r21
    235a:	24 83       	std	Z+4, r18	; 0x04
    235c:	35 83       	std	Z+5, r19	; 0x05
    235e:	46 83       	std	Z+6, r20	; 0x06
    2360:	57 83       	std	Z+7, r21	; 0x07
    2362:	82 81       	ldd	r24, Z+2	; 0x02
    2364:	93 81       	ldd	r25, Z+3	; 0x03
    2366:	01 97       	sbiw	r24, 0x01	; 1
    2368:	93 83       	std	Z+3, r25	; 0x03
    236a:	82 83       	std	Z+2, r24	; 0x02
    236c:	24 81       	ldd	r18, Z+4	; 0x04
    236e:	35 81       	ldd	r19, Z+5	; 0x05
    2370:	46 81       	ldd	r20, Z+6	; 0x06
    2372:	57 81       	ldd	r21, Z+7	; 0x07
    2374:	da 01       	movw	r26, r20
    2376:	c9 01       	movw	r24, r18
    2378:	01 97       	sbiw	r24, 0x01	; 1
    237a:	a1 09       	sbc	r26, r1
    237c:	b1 09       	sbc	r27, r1
    237e:	8f 5f       	subi	r24, 0xFF	; 255
    2380:	9f 4f       	sbci	r25, 0xFF	; 255
    2382:	af 4f       	sbci	r26, 0xFF	; 255
    2384:	bf 43       	sbci	r27, 0x3F	; 63
    2386:	28 f3       	brcs	.-54     	; 0x2352 <__stack+0x153>
    2388:	0b c0       	rjmp	.+22     	; 0x23a0 <__stack+0x1a1>
    238a:	91 83       	std	Z+1, r25	; 0x01
    238c:	33 82       	std	Z+3, r3	; 0x03
    238e:	22 82       	std	Z+2, r2	; 0x02
    2390:	ea 0c       	add	r14, r10
    2392:	fb 1c       	adc	r15, r11
    2394:	0c 1d       	adc	r16, r12
    2396:	1d 1d       	adc	r17, r13
    2398:	e4 82       	std	Z+4, r14	; 0x04
    239a:	f5 82       	std	Z+5, r15	; 0x05
    239c:	06 83       	std	Z+6, r16	; 0x06
    239e:	17 83       	std	Z+7, r17	; 0x07
    23a0:	83 e0       	ldi	r24, 0x03	; 3
    23a2:	80 83       	st	Z, r24
    23a4:	24 81       	ldd	r18, Z+4	; 0x04
    23a6:	35 81       	ldd	r19, Z+5	; 0x05
    23a8:	46 81       	ldd	r20, Z+6	; 0x06
    23aa:	57 81       	ldd	r21, Z+7	; 0x07
    23ac:	57 ff       	sbrs	r21, 7
    23ae:	1a c0       	rjmp	.+52     	; 0x23e4 <__stack+0x1e5>
    23b0:	c9 01       	movw	r24, r18
    23b2:	aa 27       	eor	r26, r26
    23b4:	97 fd       	sbrc	r25, 7
    23b6:	a0 95       	com	r26
    23b8:	ba 2f       	mov	r27, r26
    23ba:	81 70       	andi	r24, 0x01	; 1
    23bc:	90 70       	andi	r25, 0x00	; 0
    23be:	a0 70       	andi	r26, 0x00	; 0
    23c0:	b0 70       	andi	r27, 0x00	; 0
    23c2:	56 95       	lsr	r21
    23c4:	47 95       	ror	r20
    23c6:	37 95       	ror	r19
    23c8:	27 95       	ror	r18
    23ca:	82 2b       	or	r24, r18
    23cc:	93 2b       	or	r25, r19
    23ce:	a4 2b       	or	r26, r20
    23d0:	b5 2b       	or	r27, r21
    23d2:	84 83       	std	Z+4, r24	; 0x04
    23d4:	95 83       	std	Z+5, r25	; 0x05
    23d6:	a6 83       	std	Z+6, r26	; 0x06
    23d8:	b7 83       	std	Z+7, r27	; 0x07
    23da:	82 81       	ldd	r24, Z+2	; 0x02
    23dc:	93 81       	ldd	r25, Z+3	; 0x03
    23de:	01 96       	adiw	r24, 0x01	; 1
    23e0:	93 83       	std	Z+3, r25	; 0x03
    23e2:	82 83       	std	Z+2, r24	; 0x02
    23e4:	df 01       	movw	r26, r30
    23e6:	01 c0       	rjmp	.+2      	; 0x23ea <__stack+0x1eb>
    23e8:	d2 01       	movw	r26, r4
    23ea:	cd 01       	movw	r24, r26
    23ec:	cd b7       	in	r28, 0x3d	; 61
    23ee:	de b7       	in	r29, 0x3e	; 62
    23f0:	e2 e1       	ldi	r30, 0x12	; 18
    23f2:	0c 94 2c 17 	jmp	0x2e58	; 0x2e58 <__epilogue_restores__>

000023f6 <__subsf3>:
    23f6:	a0 e2       	ldi	r26, 0x20	; 32
    23f8:	b0 e0       	ldi	r27, 0x00	; 0
    23fa:	e1 e0       	ldi	r30, 0x01	; 1
    23fc:	f2 e1       	ldi	r31, 0x12	; 18
    23fe:	0c 94 1c 17 	jmp	0x2e38	; 0x2e38 <__prologue_saves__+0x18>
    2402:	69 83       	std	Y+1, r22	; 0x01
    2404:	7a 83       	std	Y+2, r23	; 0x02
    2406:	8b 83       	std	Y+3, r24	; 0x03
    2408:	9c 83       	std	Y+4, r25	; 0x04
    240a:	2d 83       	std	Y+5, r18	; 0x05
    240c:	3e 83       	std	Y+6, r19	; 0x06
    240e:	4f 83       	std	Y+7, r20	; 0x07
    2410:	58 87       	std	Y+8, r21	; 0x08
    2412:	e9 e0       	ldi	r30, 0x09	; 9
    2414:	ee 2e       	mov	r14, r30
    2416:	f1 2c       	mov	r15, r1
    2418:	ec 0e       	add	r14, r28
    241a:	fd 1e       	adc	r15, r29
    241c:	ce 01       	movw	r24, r28
    241e:	01 96       	adiw	r24, 0x01	; 1
    2420:	b7 01       	movw	r22, r14
    2422:	0e 94 26 15 	call	0x2a4c	; 0x2a4c <__unpack_f>
    2426:	8e 01       	movw	r16, r28
    2428:	0f 5e       	subi	r16, 0xEF	; 239
    242a:	1f 4f       	sbci	r17, 0xFF	; 255
    242c:	ce 01       	movw	r24, r28
    242e:	05 96       	adiw	r24, 0x05	; 5
    2430:	b8 01       	movw	r22, r16
    2432:	0e 94 26 15 	call	0x2a4c	; 0x2a4c <__unpack_f>
    2436:	8a 89       	ldd	r24, Y+18	; 0x12
    2438:	91 e0       	ldi	r25, 0x01	; 1
    243a:	89 27       	eor	r24, r25
    243c:	8a 8b       	std	Y+18, r24	; 0x12
    243e:	c7 01       	movw	r24, r14
    2440:	b8 01       	movw	r22, r16
    2442:	ae 01       	movw	r20, r28
    2444:	47 5e       	subi	r20, 0xE7	; 231
    2446:	5f 4f       	sbci	r21, 0xFF	; 255
    2448:	0e 94 af 10 	call	0x215e	; 0x215e <_fpadd_parts>
    244c:	0e 94 51 14 	call	0x28a2	; 0x28a2 <__pack_f>
    2450:	a0 96       	adiw	r28, 0x20	; 32
    2452:	e6 e0       	ldi	r30, 0x06	; 6
    2454:	0c 94 38 17 	jmp	0x2e70	; 0x2e70 <__epilogue_restores__+0x18>

00002458 <__addsf3>:
    2458:	a0 e2       	ldi	r26, 0x20	; 32
    245a:	b0 e0       	ldi	r27, 0x00	; 0
    245c:	e2 e3       	ldi	r30, 0x32	; 50
    245e:	f2 e1       	ldi	r31, 0x12	; 18
    2460:	0c 94 1c 17 	jmp	0x2e38	; 0x2e38 <__prologue_saves__+0x18>
    2464:	69 83       	std	Y+1, r22	; 0x01
    2466:	7a 83       	std	Y+2, r23	; 0x02
    2468:	8b 83       	std	Y+3, r24	; 0x03
    246a:	9c 83       	std	Y+4, r25	; 0x04
    246c:	2d 83       	std	Y+5, r18	; 0x05
    246e:	3e 83       	std	Y+6, r19	; 0x06
    2470:	4f 83       	std	Y+7, r20	; 0x07
    2472:	58 87       	std	Y+8, r21	; 0x08
    2474:	f9 e0       	ldi	r31, 0x09	; 9
    2476:	ef 2e       	mov	r14, r31
    2478:	f1 2c       	mov	r15, r1
    247a:	ec 0e       	add	r14, r28
    247c:	fd 1e       	adc	r15, r29
    247e:	ce 01       	movw	r24, r28
    2480:	01 96       	adiw	r24, 0x01	; 1
    2482:	b7 01       	movw	r22, r14
    2484:	0e 94 26 15 	call	0x2a4c	; 0x2a4c <__unpack_f>
    2488:	8e 01       	movw	r16, r28
    248a:	0f 5e       	subi	r16, 0xEF	; 239
    248c:	1f 4f       	sbci	r17, 0xFF	; 255
    248e:	ce 01       	movw	r24, r28
    2490:	05 96       	adiw	r24, 0x05	; 5
    2492:	b8 01       	movw	r22, r16
    2494:	0e 94 26 15 	call	0x2a4c	; 0x2a4c <__unpack_f>
    2498:	c7 01       	movw	r24, r14
    249a:	b8 01       	movw	r22, r16
    249c:	ae 01       	movw	r20, r28
    249e:	47 5e       	subi	r20, 0xE7	; 231
    24a0:	5f 4f       	sbci	r21, 0xFF	; 255
    24a2:	0e 94 af 10 	call	0x215e	; 0x215e <_fpadd_parts>
    24a6:	0e 94 51 14 	call	0x28a2	; 0x28a2 <__pack_f>
    24aa:	a0 96       	adiw	r28, 0x20	; 32
    24ac:	e6 e0       	ldi	r30, 0x06	; 6
    24ae:	0c 94 38 17 	jmp	0x2e70	; 0x2e70 <__epilogue_restores__+0x18>

000024b2 <__divsf3>:
    24b2:	a8 e1       	ldi	r26, 0x18	; 24
    24b4:	b0 e0       	ldi	r27, 0x00	; 0
    24b6:	ef e5       	ldi	r30, 0x5F	; 95
    24b8:	f2 e1       	ldi	r31, 0x12	; 18
    24ba:	0c 94 18 17 	jmp	0x2e30	; 0x2e30 <__prologue_saves__+0x10>
    24be:	69 83       	std	Y+1, r22	; 0x01
    24c0:	7a 83       	std	Y+2, r23	; 0x02
    24c2:	8b 83       	std	Y+3, r24	; 0x03
    24c4:	9c 83       	std	Y+4, r25	; 0x04
    24c6:	2d 83       	std	Y+5, r18	; 0x05
    24c8:	3e 83       	std	Y+6, r19	; 0x06
    24ca:	4f 83       	std	Y+7, r20	; 0x07
    24cc:	58 87       	std	Y+8, r21	; 0x08
    24ce:	b9 e0       	ldi	r27, 0x09	; 9
    24d0:	eb 2e       	mov	r14, r27
    24d2:	f1 2c       	mov	r15, r1
    24d4:	ec 0e       	add	r14, r28
    24d6:	fd 1e       	adc	r15, r29
    24d8:	ce 01       	movw	r24, r28
    24da:	01 96       	adiw	r24, 0x01	; 1
    24dc:	b7 01       	movw	r22, r14
    24de:	0e 94 26 15 	call	0x2a4c	; 0x2a4c <__unpack_f>
    24e2:	8e 01       	movw	r16, r28
    24e4:	0f 5e       	subi	r16, 0xEF	; 239
    24e6:	1f 4f       	sbci	r17, 0xFF	; 255
    24e8:	ce 01       	movw	r24, r28
    24ea:	05 96       	adiw	r24, 0x05	; 5
    24ec:	b8 01       	movw	r22, r16
    24ee:	0e 94 26 15 	call	0x2a4c	; 0x2a4c <__unpack_f>
    24f2:	29 85       	ldd	r18, Y+9	; 0x09
    24f4:	22 30       	cpi	r18, 0x02	; 2
    24f6:	08 f4       	brcc	.+2      	; 0x24fa <__divsf3+0x48>
    24f8:	7e c0       	rjmp	.+252    	; 0x25f6 <__divsf3+0x144>
    24fa:	39 89       	ldd	r19, Y+17	; 0x11
    24fc:	32 30       	cpi	r19, 0x02	; 2
    24fe:	10 f4       	brcc	.+4      	; 0x2504 <__divsf3+0x52>
    2500:	b8 01       	movw	r22, r16
    2502:	7c c0       	rjmp	.+248    	; 0x25fc <__divsf3+0x14a>
    2504:	8a 85       	ldd	r24, Y+10	; 0x0a
    2506:	9a 89       	ldd	r25, Y+18	; 0x12
    2508:	89 27       	eor	r24, r25
    250a:	8a 87       	std	Y+10, r24	; 0x0a
    250c:	24 30       	cpi	r18, 0x04	; 4
    250e:	11 f0       	breq	.+4      	; 0x2514 <__divsf3+0x62>
    2510:	22 30       	cpi	r18, 0x02	; 2
    2512:	31 f4       	brne	.+12     	; 0x2520 <__divsf3+0x6e>
    2514:	23 17       	cp	r18, r19
    2516:	09 f0       	breq	.+2      	; 0x251a <__divsf3+0x68>
    2518:	6e c0       	rjmp	.+220    	; 0x25f6 <__divsf3+0x144>
    251a:	61 e2       	ldi	r22, 0x21	; 33
    251c:	73 e0       	ldi	r23, 0x03	; 3
    251e:	6e c0       	rjmp	.+220    	; 0x25fc <__divsf3+0x14a>
    2520:	34 30       	cpi	r19, 0x04	; 4
    2522:	39 f4       	brne	.+14     	; 0x2532 <__divsf3+0x80>
    2524:	1d 86       	std	Y+13, r1	; 0x0d
    2526:	1e 86       	std	Y+14, r1	; 0x0e
    2528:	1f 86       	std	Y+15, r1	; 0x0f
    252a:	18 8a       	std	Y+16, r1	; 0x10
    252c:	1c 86       	std	Y+12, r1	; 0x0c
    252e:	1b 86       	std	Y+11, r1	; 0x0b
    2530:	04 c0       	rjmp	.+8      	; 0x253a <__divsf3+0x88>
    2532:	32 30       	cpi	r19, 0x02	; 2
    2534:	21 f4       	brne	.+8      	; 0x253e <__divsf3+0x8c>
    2536:	84 e0       	ldi	r24, 0x04	; 4
    2538:	89 87       	std	Y+9, r24	; 0x09
    253a:	b7 01       	movw	r22, r14
    253c:	5f c0       	rjmp	.+190    	; 0x25fc <__divsf3+0x14a>
    253e:	2b 85       	ldd	r18, Y+11	; 0x0b
    2540:	3c 85       	ldd	r19, Y+12	; 0x0c
    2542:	8b 89       	ldd	r24, Y+19	; 0x13
    2544:	9c 89       	ldd	r25, Y+20	; 0x14
    2546:	28 1b       	sub	r18, r24
    2548:	39 0b       	sbc	r19, r25
    254a:	3c 87       	std	Y+12, r19	; 0x0c
    254c:	2b 87       	std	Y+11, r18	; 0x0b
    254e:	ed 84       	ldd	r14, Y+13	; 0x0d
    2550:	fe 84       	ldd	r15, Y+14	; 0x0e
    2552:	0f 85       	ldd	r16, Y+15	; 0x0f
    2554:	18 89       	ldd	r17, Y+16	; 0x10
    2556:	ad 88       	ldd	r10, Y+21	; 0x15
    2558:	be 88       	ldd	r11, Y+22	; 0x16
    255a:	cf 88       	ldd	r12, Y+23	; 0x17
    255c:	d8 8c       	ldd	r13, Y+24	; 0x18
    255e:	ea 14       	cp	r14, r10
    2560:	fb 04       	cpc	r15, r11
    2562:	0c 05       	cpc	r16, r12
    2564:	1d 05       	cpc	r17, r13
    2566:	40 f4       	brcc	.+16     	; 0x2578 <__divsf3+0xc6>
    2568:	ee 0c       	add	r14, r14
    256a:	ff 1c       	adc	r15, r15
    256c:	00 1f       	adc	r16, r16
    256e:	11 1f       	adc	r17, r17
    2570:	21 50       	subi	r18, 0x01	; 1
    2572:	30 40       	sbci	r19, 0x00	; 0
    2574:	3c 87       	std	Y+12, r19	; 0x0c
    2576:	2b 87       	std	Y+11, r18	; 0x0b
    2578:	20 e0       	ldi	r18, 0x00	; 0
    257a:	30 e0       	ldi	r19, 0x00	; 0
    257c:	40 e0       	ldi	r20, 0x00	; 0
    257e:	50 e0       	ldi	r21, 0x00	; 0
    2580:	80 e0       	ldi	r24, 0x00	; 0
    2582:	90 e0       	ldi	r25, 0x00	; 0
    2584:	a0 e0       	ldi	r26, 0x00	; 0
    2586:	b0 e4       	ldi	r27, 0x40	; 64
    2588:	60 e0       	ldi	r22, 0x00	; 0
    258a:	70 e0       	ldi	r23, 0x00	; 0
    258c:	ea 14       	cp	r14, r10
    258e:	fb 04       	cpc	r15, r11
    2590:	0c 05       	cpc	r16, r12
    2592:	1d 05       	cpc	r17, r13
    2594:	40 f0       	brcs	.+16     	; 0x25a6 <__divsf3+0xf4>
    2596:	28 2b       	or	r18, r24
    2598:	39 2b       	or	r19, r25
    259a:	4a 2b       	or	r20, r26
    259c:	5b 2b       	or	r21, r27
    259e:	ea 18       	sub	r14, r10
    25a0:	fb 08       	sbc	r15, r11
    25a2:	0c 09       	sbc	r16, r12
    25a4:	1d 09       	sbc	r17, r13
    25a6:	b6 95       	lsr	r27
    25a8:	a7 95       	ror	r26
    25aa:	97 95       	ror	r25
    25ac:	87 95       	ror	r24
    25ae:	ee 0c       	add	r14, r14
    25b0:	ff 1c       	adc	r15, r15
    25b2:	00 1f       	adc	r16, r16
    25b4:	11 1f       	adc	r17, r17
    25b6:	6f 5f       	subi	r22, 0xFF	; 255
    25b8:	7f 4f       	sbci	r23, 0xFF	; 255
    25ba:	6f 31       	cpi	r22, 0x1F	; 31
    25bc:	71 05       	cpc	r23, r1
    25be:	31 f7       	brne	.-52     	; 0x258c <__divsf3+0xda>
    25c0:	da 01       	movw	r26, r20
    25c2:	c9 01       	movw	r24, r18
    25c4:	8f 77       	andi	r24, 0x7F	; 127
    25c6:	90 70       	andi	r25, 0x00	; 0
    25c8:	a0 70       	andi	r26, 0x00	; 0
    25ca:	b0 70       	andi	r27, 0x00	; 0
    25cc:	80 34       	cpi	r24, 0x40	; 64
    25ce:	91 05       	cpc	r25, r1
    25d0:	a1 05       	cpc	r26, r1
    25d2:	b1 05       	cpc	r27, r1
    25d4:	61 f4       	brne	.+24     	; 0x25ee <__divsf3+0x13c>
    25d6:	27 fd       	sbrc	r18, 7
    25d8:	0a c0       	rjmp	.+20     	; 0x25ee <__divsf3+0x13c>
    25da:	e1 14       	cp	r14, r1
    25dc:	f1 04       	cpc	r15, r1
    25de:	01 05       	cpc	r16, r1
    25e0:	11 05       	cpc	r17, r1
    25e2:	29 f0       	breq	.+10     	; 0x25ee <__divsf3+0x13c>
    25e4:	20 5c       	subi	r18, 0xC0	; 192
    25e6:	3f 4f       	sbci	r19, 0xFF	; 255
    25e8:	4f 4f       	sbci	r20, 0xFF	; 255
    25ea:	5f 4f       	sbci	r21, 0xFF	; 255
    25ec:	20 78       	andi	r18, 0x80	; 128
    25ee:	2d 87       	std	Y+13, r18	; 0x0d
    25f0:	3e 87       	std	Y+14, r19	; 0x0e
    25f2:	4f 87       	std	Y+15, r20	; 0x0f
    25f4:	58 8b       	std	Y+16, r21	; 0x10
    25f6:	be 01       	movw	r22, r28
    25f8:	67 5f       	subi	r22, 0xF7	; 247
    25fa:	7f 4f       	sbci	r23, 0xFF	; 255
    25fc:	cb 01       	movw	r24, r22
    25fe:	0e 94 51 14 	call	0x28a2	; 0x28a2 <__pack_f>
    2602:	68 96       	adiw	r28, 0x18	; 24
    2604:	ea e0       	ldi	r30, 0x0A	; 10
    2606:	0c 94 34 17 	jmp	0x2e68	; 0x2e68 <__epilogue_restores__+0x10>

0000260a <__gesf2>:
    260a:	a8 e1       	ldi	r26, 0x18	; 24
    260c:	b0 e0       	ldi	r27, 0x00	; 0
    260e:	eb e0       	ldi	r30, 0x0B	; 11
    2610:	f3 e1       	ldi	r31, 0x13	; 19
    2612:	0c 94 1c 17 	jmp	0x2e38	; 0x2e38 <__prologue_saves__+0x18>
    2616:	69 83       	std	Y+1, r22	; 0x01
    2618:	7a 83       	std	Y+2, r23	; 0x02
    261a:	8b 83       	std	Y+3, r24	; 0x03
    261c:	9c 83       	std	Y+4, r25	; 0x04
    261e:	2d 83       	std	Y+5, r18	; 0x05
    2620:	3e 83       	std	Y+6, r19	; 0x06
    2622:	4f 83       	std	Y+7, r20	; 0x07
    2624:	58 87       	std	Y+8, r21	; 0x08
    2626:	89 e0       	ldi	r24, 0x09	; 9
    2628:	e8 2e       	mov	r14, r24
    262a:	f1 2c       	mov	r15, r1
    262c:	ec 0e       	add	r14, r28
    262e:	fd 1e       	adc	r15, r29
    2630:	ce 01       	movw	r24, r28
    2632:	01 96       	adiw	r24, 0x01	; 1
    2634:	b7 01       	movw	r22, r14
    2636:	0e 94 26 15 	call	0x2a4c	; 0x2a4c <__unpack_f>
    263a:	8e 01       	movw	r16, r28
    263c:	0f 5e       	subi	r16, 0xEF	; 239
    263e:	1f 4f       	sbci	r17, 0xFF	; 255
    2640:	ce 01       	movw	r24, r28
    2642:	05 96       	adiw	r24, 0x05	; 5
    2644:	b8 01       	movw	r22, r16
    2646:	0e 94 26 15 	call	0x2a4c	; 0x2a4c <__unpack_f>
    264a:	89 85       	ldd	r24, Y+9	; 0x09
    264c:	82 30       	cpi	r24, 0x02	; 2
    264e:	40 f0       	brcs	.+16     	; 0x2660 <__gesf2+0x56>
    2650:	89 89       	ldd	r24, Y+17	; 0x11
    2652:	82 30       	cpi	r24, 0x02	; 2
    2654:	28 f0       	brcs	.+10     	; 0x2660 <__gesf2+0x56>
    2656:	c7 01       	movw	r24, r14
    2658:	b8 01       	movw	r22, r16
    265a:	0e 94 9e 15 	call	0x2b3c	; 0x2b3c <__fpcmp_parts_f>
    265e:	01 c0       	rjmp	.+2      	; 0x2662 <__gesf2+0x58>
    2660:	8f ef       	ldi	r24, 0xFF	; 255
    2662:	68 96       	adiw	r28, 0x18	; 24
    2664:	e6 e0       	ldi	r30, 0x06	; 6
    2666:	0c 94 38 17 	jmp	0x2e70	; 0x2e70 <__epilogue_restores__+0x18>

0000266a <__fixsfsi>:
    266a:	ac e0       	ldi	r26, 0x0C	; 12
    266c:	b0 e0       	ldi	r27, 0x00	; 0
    266e:	eb e3       	ldi	r30, 0x3B	; 59
    2670:	f3 e1       	ldi	r31, 0x13	; 19
    2672:	0c 94 20 17 	jmp	0x2e40	; 0x2e40 <__prologue_saves__+0x20>
    2676:	69 83       	std	Y+1, r22	; 0x01
    2678:	7a 83       	std	Y+2, r23	; 0x02
    267a:	8b 83       	std	Y+3, r24	; 0x03
    267c:	9c 83       	std	Y+4, r25	; 0x04
    267e:	ce 01       	movw	r24, r28
    2680:	01 96       	adiw	r24, 0x01	; 1
    2682:	be 01       	movw	r22, r28
    2684:	6b 5f       	subi	r22, 0xFB	; 251
    2686:	7f 4f       	sbci	r23, 0xFF	; 255
    2688:	0e 94 26 15 	call	0x2a4c	; 0x2a4c <__unpack_f>
    268c:	8d 81       	ldd	r24, Y+5	; 0x05
    268e:	82 30       	cpi	r24, 0x02	; 2
    2690:	61 f1       	breq	.+88     	; 0x26ea <__fixsfsi+0x80>
    2692:	82 30       	cpi	r24, 0x02	; 2
    2694:	50 f1       	brcs	.+84     	; 0x26ea <__fixsfsi+0x80>
    2696:	84 30       	cpi	r24, 0x04	; 4
    2698:	21 f4       	brne	.+8      	; 0x26a2 <__fixsfsi+0x38>
    269a:	8e 81       	ldd	r24, Y+6	; 0x06
    269c:	88 23       	and	r24, r24
    269e:	51 f1       	breq	.+84     	; 0x26f4 <__fixsfsi+0x8a>
    26a0:	2e c0       	rjmp	.+92     	; 0x26fe <__fixsfsi+0x94>
    26a2:	2f 81       	ldd	r18, Y+7	; 0x07
    26a4:	38 85       	ldd	r19, Y+8	; 0x08
    26a6:	37 fd       	sbrc	r19, 7
    26a8:	20 c0       	rjmp	.+64     	; 0x26ea <__fixsfsi+0x80>
    26aa:	6e 81       	ldd	r22, Y+6	; 0x06
    26ac:	2f 31       	cpi	r18, 0x1F	; 31
    26ae:	31 05       	cpc	r19, r1
    26b0:	1c f0       	brlt	.+6      	; 0x26b8 <__fixsfsi+0x4e>
    26b2:	66 23       	and	r22, r22
    26b4:	f9 f0       	breq	.+62     	; 0x26f4 <__fixsfsi+0x8a>
    26b6:	23 c0       	rjmp	.+70     	; 0x26fe <__fixsfsi+0x94>
    26b8:	8e e1       	ldi	r24, 0x1E	; 30
    26ba:	90 e0       	ldi	r25, 0x00	; 0
    26bc:	82 1b       	sub	r24, r18
    26be:	93 0b       	sbc	r25, r19
    26c0:	29 85       	ldd	r18, Y+9	; 0x09
    26c2:	3a 85       	ldd	r19, Y+10	; 0x0a
    26c4:	4b 85       	ldd	r20, Y+11	; 0x0b
    26c6:	5c 85       	ldd	r21, Y+12	; 0x0c
    26c8:	04 c0       	rjmp	.+8      	; 0x26d2 <__fixsfsi+0x68>
    26ca:	56 95       	lsr	r21
    26cc:	47 95       	ror	r20
    26ce:	37 95       	ror	r19
    26d0:	27 95       	ror	r18
    26d2:	8a 95       	dec	r24
    26d4:	d2 f7       	brpl	.-12     	; 0x26ca <__fixsfsi+0x60>
    26d6:	66 23       	and	r22, r22
    26d8:	b1 f0       	breq	.+44     	; 0x2706 <__fixsfsi+0x9c>
    26da:	50 95       	com	r21
    26dc:	40 95       	com	r20
    26de:	30 95       	com	r19
    26e0:	21 95       	neg	r18
    26e2:	3f 4f       	sbci	r19, 0xFF	; 255
    26e4:	4f 4f       	sbci	r20, 0xFF	; 255
    26e6:	5f 4f       	sbci	r21, 0xFF	; 255
    26e8:	0e c0       	rjmp	.+28     	; 0x2706 <__fixsfsi+0x9c>
    26ea:	20 e0       	ldi	r18, 0x00	; 0
    26ec:	30 e0       	ldi	r19, 0x00	; 0
    26ee:	40 e0       	ldi	r20, 0x00	; 0
    26f0:	50 e0       	ldi	r21, 0x00	; 0
    26f2:	09 c0       	rjmp	.+18     	; 0x2706 <__fixsfsi+0x9c>
    26f4:	2f ef       	ldi	r18, 0xFF	; 255
    26f6:	3f ef       	ldi	r19, 0xFF	; 255
    26f8:	4f ef       	ldi	r20, 0xFF	; 255
    26fa:	5f e7       	ldi	r21, 0x7F	; 127
    26fc:	04 c0       	rjmp	.+8      	; 0x2706 <__fixsfsi+0x9c>
    26fe:	20 e0       	ldi	r18, 0x00	; 0
    2700:	30 e0       	ldi	r19, 0x00	; 0
    2702:	40 e0       	ldi	r20, 0x00	; 0
    2704:	50 e8       	ldi	r21, 0x80	; 128
    2706:	b9 01       	movw	r22, r18
    2708:	ca 01       	movw	r24, r20
    270a:	2c 96       	adiw	r28, 0x0c	; 12
    270c:	e2 e0       	ldi	r30, 0x02	; 2
    270e:	0c 94 3c 17 	jmp	0x2e78	; 0x2e78 <__epilogue_restores__+0x20>

00002712 <__floatunsisf>:
    2712:	a8 e0       	ldi	r26, 0x08	; 8
    2714:	b0 e0       	ldi	r27, 0x00	; 0
    2716:	ef e8       	ldi	r30, 0x8F	; 143
    2718:	f3 e1       	ldi	r31, 0x13	; 19
    271a:	0c 94 18 17 	jmp	0x2e30	; 0x2e30 <__prologue_saves__+0x10>
    271e:	7b 01       	movw	r14, r22
    2720:	8c 01       	movw	r16, r24
    2722:	61 15       	cp	r22, r1
    2724:	71 05       	cpc	r23, r1
    2726:	81 05       	cpc	r24, r1
    2728:	91 05       	cpc	r25, r1
    272a:	19 f4       	brne	.+6      	; 0x2732 <__floatunsisf+0x20>
    272c:	82 e0       	ldi	r24, 0x02	; 2
    272e:	89 83       	std	Y+1, r24	; 0x01
    2730:	60 c0       	rjmp	.+192    	; 0x27f2 <__floatunsisf+0xe0>
    2732:	83 e0       	ldi	r24, 0x03	; 3
    2734:	89 83       	std	Y+1, r24	; 0x01
    2736:	8e e1       	ldi	r24, 0x1E	; 30
    2738:	c8 2e       	mov	r12, r24
    273a:	d1 2c       	mov	r13, r1
    273c:	dc 82       	std	Y+4, r13	; 0x04
    273e:	cb 82       	std	Y+3, r12	; 0x03
    2740:	ed 82       	std	Y+5, r14	; 0x05
    2742:	fe 82       	std	Y+6, r15	; 0x06
    2744:	0f 83       	std	Y+7, r16	; 0x07
    2746:	18 87       	std	Y+8, r17	; 0x08
    2748:	c8 01       	movw	r24, r16
    274a:	b7 01       	movw	r22, r14
    274c:	0e 94 02 14 	call	0x2804	; 0x2804 <__clzsi2>
    2750:	fc 01       	movw	r30, r24
    2752:	31 97       	sbiw	r30, 0x01	; 1
    2754:	f7 ff       	sbrs	r31, 7
    2756:	3b c0       	rjmp	.+118    	; 0x27ce <__floatunsisf+0xbc>
    2758:	22 27       	eor	r18, r18
    275a:	33 27       	eor	r19, r19
    275c:	2e 1b       	sub	r18, r30
    275e:	3f 0b       	sbc	r19, r31
    2760:	57 01       	movw	r10, r14
    2762:	68 01       	movw	r12, r16
    2764:	02 2e       	mov	r0, r18
    2766:	04 c0       	rjmp	.+8      	; 0x2770 <__floatunsisf+0x5e>
    2768:	d6 94       	lsr	r13
    276a:	c7 94       	ror	r12
    276c:	b7 94       	ror	r11
    276e:	a7 94       	ror	r10
    2770:	0a 94       	dec	r0
    2772:	d2 f7       	brpl	.-12     	; 0x2768 <__floatunsisf+0x56>
    2774:	40 e0       	ldi	r20, 0x00	; 0
    2776:	50 e0       	ldi	r21, 0x00	; 0
    2778:	60 e0       	ldi	r22, 0x00	; 0
    277a:	70 e0       	ldi	r23, 0x00	; 0
    277c:	81 e0       	ldi	r24, 0x01	; 1
    277e:	90 e0       	ldi	r25, 0x00	; 0
    2780:	a0 e0       	ldi	r26, 0x00	; 0
    2782:	b0 e0       	ldi	r27, 0x00	; 0
    2784:	04 c0       	rjmp	.+8      	; 0x278e <__floatunsisf+0x7c>
    2786:	88 0f       	add	r24, r24
    2788:	99 1f       	adc	r25, r25
    278a:	aa 1f       	adc	r26, r26
    278c:	bb 1f       	adc	r27, r27
    278e:	2a 95       	dec	r18
    2790:	d2 f7       	brpl	.-12     	; 0x2786 <__floatunsisf+0x74>
    2792:	01 97       	sbiw	r24, 0x01	; 1
    2794:	a1 09       	sbc	r26, r1
    2796:	b1 09       	sbc	r27, r1
    2798:	8e 21       	and	r24, r14
    279a:	9f 21       	and	r25, r15
    279c:	a0 23       	and	r26, r16
    279e:	b1 23       	and	r27, r17
    27a0:	00 97       	sbiw	r24, 0x00	; 0
    27a2:	a1 05       	cpc	r26, r1
    27a4:	b1 05       	cpc	r27, r1
    27a6:	21 f0       	breq	.+8      	; 0x27b0 <__floatunsisf+0x9e>
    27a8:	41 e0       	ldi	r20, 0x01	; 1
    27aa:	50 e0       	ldi	r21, 0x00	; 0
    27ac:	60 e0       	ldi	r22, 0x00	; 0
    27ae:	70 e0       	ldi	r23, 0x00	; 0
    27b0:	4a 29       	or	r20, r10
    27b2:	5b 29       	or	r21, r11
    27b4:	6c 29       	or	r22, r12
    27b6:	7d 29       	or	r23, r13
    27b8:	4d 83       	std	Y+5, r20	; 0x05
    27ba:	5e 83       	std	Y+6, r21	; 0x06
    27bc:	6f 83       	std	Y+7, r22	; 0x07
    27be:	78 87       	std	Y+8, r23	; 0x08
    27c0:	8e e1       	ldi	r24, 0x1E	; 30
    27c2:	90 e0       	ldi	r25, 0x00	; 0
    27c4:	8e 1b       	sub	r24, r30
    27c6:	9f 0b       	sbc	r25, r31
    27c8:	9c 83       	std	Y+4, r25	; 0x04
    27ca:	8b 83       	std	Y+3, r24	; 0x03
    27cc:	12 c0       	rjmp	.+36     	; 0x27f2 <__floatunsisf+0xe0>
    27ce:	30 97       	sbiw	r30, 0x00	; 0
    27d0:	81 f0       	breq	.+32     	; 0x27f2 <__floatunsisf+0xe0>
    27d2:	0e 2e       	mov	r0, r30
    27d4:	04 c0       	rjmp	.+8      	; 0x27de <__floatunsisf+0xcc>
    27d6:	ee 0c       	add	r14, r14
    27d8:	ff 1c       	adc	r15, r15
    27da:	00 1f       	adc	r16, r16
    27dc:	11 1f       	adc	r17, r17
    27de:	0a 94       	dec	r0
    27e0:	d2 f7       	brpl	.-12     	; 0x27d6 <__floatunsisf+0xc4>
    27e2:	ed 82       	std	Y+5, r14	; 0x05
    27e4:	fe 82       	std	Y+6, r15	; 0x06
    27e6:	0f 83       	std	Y+7, r16	; 0x07
    27e8:	18 87       	std	Y+8, r17	; 0x08
    27ea:	ce 1a       	sub	r12, r30
    27ec:	df 0a       	sbc	r13, r31
    27ee:	dc 82       	std	Y+4, r13	; 0x04
    27f0:	cb 82       	std	Y+3, r12	; 0x03
    27f2:	1a 82       	std	Y+2, r1	; 0x02
    27f4:	ce 01       	movw	r24, r28
    27f6:	01 96       	adiw	r24, 0x01	; 1
    27f8:	0e 94 51 14 	call	0x28a2	; 0x28a2 <__pack_f>
    27fc:	28 96       	adiw	r28, 0x08	; 8
    27fe:	ea e0       	ldi	r30, 0x0A	; 10
    2800:	0c 94 34 17 	jmp	0x2e68	; 0x2e68 <__epilogue_restores__+0x10>

00002804 <__clzsi2>:
    2804:	ef 92       	push	r14
    2806:	ff 92       	push	r15
    2808:	0f 93       	push	r16
    280a:	1f 93       	push	r17
    280c:	7b 01       	movw	r14, r22
    280e:	8c 01       	movw	r16, r24
    2810:	80 e0       	ldi	r24, 0x00	; 0
    2812:	e8 16       	cp	r14, r24
    2814:	80 e0       	ldi	r24, 0x00	; 0
    2816:	f8 06       	cpc	r15, r24
    2818:	81 e0       	ldi	r24, 0x01	; 1
    281a:	08 07       	cpc	r16, r24
    281c:	80 e0       	ldi	r24, 0x00	; 0
    281e:	18 07       	cpc	r17, r24
    2820:	88 f4       	brcc	.+34     	; 0x2844 <__clzsi2+0x40>
    2822:	8f ef       	ldi	r24, 0xFF	; 255
    2824:	e8 16       	cp	r14, r24
    2826:	f1 04       	cpc	r15, r1
    2828:	01 05       	cpc	r16, r1
    282a:	11 05       	cpc	r17, r1
    282c:	31 f0       	breq	.+12     	; 0x283a <__clzsi2+0x36>
    282e:	28 f0       	brcs	.+10     	; 0x283a <__clzsi2+0x36>
    2830:	88 e0       	ldi	r24, 0x08	; 8
    2832:	90 e0       	ldi	r25, 0x00	; 0
    2834:	a0 e0       	ldi	r26, 0x00	; 0
    2836:	b0 e0       	ldi	r27, 0x00	; 0
    2838:	17 c0       	rjmp	.+46     	; 0x2868 <__clzsi2+0x64>
    283a:	80 e0       	ldi	r24, 0x00	; 0
    283c:	90 e0       	ldi	r25, 0x00	; 0
    283e:	a0 e0       	ldi	r26, 0x00	; 0
    2840:	b0 e0       	ldi	r27, 0x00	; 0
    2842:	12 c0       	rjmp	.+36     	; 0x2868 <__clzsi2+0x64>
    2844:	80 e0       	ldi	r24, 0x00	; 0
    2846:	e8 16       	cp	r14, r24
    2848:	80 e0       	ldi	r24, 0x00	; 0
    284a:	f8 06       	cpc	r15, r24
    284c:	80 e0       	ldi	r24, 0x00	; 0
    284e:	08 07       	cpc	r16, r24
    2850:	81 e0       	ldi	r24, 0x01	; 1
    2852:	18 07       	cpc	r17, r24
    2854:	28 f0       	brcs	.+10     	; 0x2860 <__clzsi2+0x5c>
    2856:	88 e1       	ldi	r24, 0x18	; 24
    2858:	90 e0       	ldi	r25, 0x00	; 0
    285a:	a0 e0       	ldi	r26, 0x00	; 0
    285c:	b0 e0       	ldi	r27, 0x00	; 0
    285e:	04 c0       	rjmp	.+8      	; 0x2868 <__clzsi2+0x64>
    2860:	80 e1       	ldi	r24, 0x10	; 16
    2862:	90 e0       	ldi	r25, 0x00	; 0
    2864:	a0 e0       	ldi	r26, 0x00	; 0
    2866:	b0 e0       	ldi	r27, 0x00	; 0
    2868:	20 e2       	ldi	r18, 0x20	; 32
    286a:	30 e0       	ldi	r19, 0x00	; 0
    286c:	40 e0       	ldi	r20, 0x00	; 0
    286e:	50 e0       	ldi	r21, 0x00	; 0
    2870:	28 1b       	sub	r18, r24
    2872:	39 0b       	sbc	r19, r25
    2874:	4a 0b       	sbc	r20, r26
    2876:	5b 0b       	sbc	r21, r27
    2878:	04 c0       	rjmp	.+8      	; 0x2882 <__clzsi2+0x7e>
    287a:	16 95       	lsr	r17
    287c:	07 95       	ror	r16
    287e:	f7 94       	ror	r15
    2880:	e7 94       	ror	r14
    2882:	8a 95       	dec	r24
    2884:	d2 f7       	brpl	.-12     	; 0x287a <__clzsi2+0x76>
    2886:	f7 01       	movw	r30, r14
    2888:	e7 5d       	subi	r30, 0xD7	; 215
    288a:	fc 4f       	sbci	r31, 0xFC	; 252
    288c:	80 81       	ld	r24, Z
    288e:	28 1b       	sub	r18, r24
    2890:	31 09       	sbc	r19, r1
    2892:	41 09       	sbc	r20, r1
    2894:	51 09       	sbc	r21, r1
    2896:	c9 01       	movw	r24, r18
    2898:	1f 91       	pop	r17
    289a:	0f 91       	pop	r16
    289c:	ff 90       	pop	r15
    289e:	ef 90       	pop	r14
    28a0:	08 95       	ret

000028a2 <__pack_f>:
    28a2:	df 92       	push	r13
    28a4:	ef 92       	push	r14
    28a6:	ff 92       	push	r15
    28a8:	0f 93       	push	r16
    28aa:	1f 93       	push	r17
    28ac:	fc 01       	movw	r30, r24
    28ae:	e4 80       	ldd	r14, Z+4	; 0x04
    28b0:	f5 80       	ldd	r15, Z+5	; 0x05
    28b2:	06 81       	ldd	r16, Z+6	; 0x06
    28b4:	17 81       	ldd	r17, Z+7	; 0x07
    28b6:	d1 80       	ldd	r13, Z+1	; 0x01
    28b8:	80 81       	ld	r24, Z
    28ba:	82 30       	cpi	r24, 0x02	; 2
    28bc:	48 f4       	brcc	.+18     	; 0x28d0 <__pack_f+0x2e>
    28be:	80 e0       	ldi	r24, 0x00	; 0
    28c0:	90 e0       	ldi	r25, 0x00	; 0
    28c2:	a0 e1       	ldi	r26, 0x10	; 16
    28c4:	b0 e0       	ldi	r27, 0x00	; 0
    28c6:	e8 2a       	or	r14, r24
    28c8:	f9 2a       	or	r15, r25
    28ca:	0a 2b       	or	r16, r26
    28cc:	1b 2b       	or	r17, r27
    28ce:	a5 c0       	rjmp	.+330    	; 0x2a1a <__pack_f+0x178>
    28d0:	84 30       	cpi	r24, 0x04	; 4
    28d2:	09 f4       	brne	.+2      	; 0x28d6 <__pack_f+0x34>
    28d4:	9f c0       	rjmp	.+318    	; 0x2a14 <__pack_f+0x172>
    28d6:	82 30       	cpi	r24, 0x02	; 2
    28d8:	21 f4       	brne	.+8      	; 0x28e2 <__pack_f+0x40>
    28da:	ee 24       	eor	r14, r14
    28dc:	ff 24       	eor	r15, r15
    28de:	87 01       	movw	r16, r14
    28e0:	05 c0       	rjmp	.+10     	; 0x28ec <__pack_f+0x4a>
    28e2:	e1 14       	cp	r14, r1
    28e4:	f1 04       	cpc	r15, r1
    28e6:	01 05       	cpc	r16, r1
    28e8:	11 05       	cpc	r17, r1
    28ea:	19 f4       	brne	.+6      	; 0x28f2 <__pack_f+0x50>
    28ec:	e0 e0       	ldi	r30, 0x00	; 0
    28ee:	f0 e0       	ldi	r31, 0x00	; 0
    28f0:	96 c0       	rjmp	.+300    	; 0x2a1e <__pack_f+0x17c>
    28f2:	62 81       	ldd	r22, Z+2	; 0x02
    28f4:	73 81       	ldd	r23, Z+3	; 0x03
    28f6:	9f ef       	ldi	r25, 0xFF	; 255
    28f8:	62 38       	cpi	r22, 0x82	; 130
    28fa:	79 07       	cpc	r23, r25
    28fc:	0c f0       	brlt	.+2      	; 0x2900 <__pack_f+0x5e>
    28fe:	5b c0       	rjmp	.+182    	; 0x29b6 <__pack_f+0x114>
    2900:	22 e8       	ldi	r18, 0x82	; 130
    2902:	3f ef       	ldi	r19, 0xFF	; 255
    2904:	26 1b       	sub	r18, r22
    2906:	37 0b       	sbc	r19, r23
    2908:	2a 31       	cpi	r18, 0x1A	; 26
    290a:	31 05       	cpc	r19, r1
    290c:	2c f0       	brlt	.+10     	; 0x2918 <__pack_f+0x76>
    290e:	20 e0       	ldi	r18, 0x00	; 0
    2910:	30 e0       	ldi	r19, 0x00	; 0
    2912:	40 e0       	ldi	r20, 0x00	; 0
    2914:	50 e0       	ldi	r21, 0x00	; 0
    2916:	2a c0       	rjmp	.+84     	; 0x296c <__pack_f+0xca>
    2918:	b8 01       	movw	r22, r16
    291a:	a7 01       	movw	r20, r14
    291c:	02 2e       	mov	r0, r18
    291e:	04 c0       	rjmp	.+8      	; 0x2928 <__pack_f+0x86>
    2920:	76 95       	lsr	r23
    2922:	67 95       	ror	r22
    2924:	57 95       	ror	r21
    2926:	47 95       	ror	r20
    2928:	0a 94       	dec	r0
    292a:	d2 f7       	brpl	.-12     	; 0x2920 <__pack_f+0x7e>
    292c:	81 e0       	ldi	r24, 0x01	; 1
    292e:	90 e0       	ldi	r25, 0x00	; 0
    2930:	a0 e0       	ldi	r26, 0x00	; 0
    2932:	b0 e0       	ldi	r27, 0x00	; 0
    2934:	04 c0       	rjmp	.+8      	; 0x293e <__pack_f+0x9c>
    2936:	88 0f       	add	r24, r24
    2938:	99 1f       	adc	r25, r25
    293a:	aa 1f       	adc	r26, r26
    293c:	bb 1f       	adc	r27, r27
    293e:	2a 95       	dec	r18
    2940:	d2 f7       	brpl	.-12     	; 0x2936 <__pack_f+0x94>
    2942:	01 97       	sbiw	r24, 0x01	; 1
    2944:	a1 09       	sbc	r26, r1
    2946:	b1 09       	sbc	r27, r1
    2948:	8e 21       	and	r24, r14
    294a:	9f 21       	and	r25, r15
    294c:	a0 23       	and	r26, r16
    294e:	b1 23       	and	r27, r17
    2950:	00 97       	sbiw	r24, 0x00	; 0
    2952:	a1 05       	cpc	r26, r1
    2954:	b1 05       	cpc	r27, r1
    2956:	21 f0       	breq	.+8      	; 0x2960 <__pack_f+0xbe>
    2958:	81 e0       	ldi	r24, 0x01	; 1
    295a:	90 e0       	ldi	r25, 0x00	; 0
    295c:	a0 e0       	ldi	r26, 0x00	; 0
    295e:	b0 e0       	ldi	r27, 0x00	; 0
    2960:	9a 01       	movw	r18, r20
    2962:	ab 01       	movw	r20, r22
    2964:	28 2b       	or	r18, r24
    2966:	39 2b       	or	r19, r25
    2968:	4a 2b       	or	r20, r26
    296a:	5b 2b       	or	r21, r27
    296c:	da 01       	movw	r26, r20
    296e:	c9 01       	movw	r24, r18
    2970:	8f 77       	andi	r24, 0x7F	; 127
    2972:	90 70       	andi	r25, 0x00	; 0
    2974:	a0 70       	andi	r26, 0x00	; 0
    2976:	b0 70       	andi	r27, 0x00	; 0
    2978:	80 34       	cpi	r24, 0x40	; 64
    297a:	91 05       	cpc	r25, r1
    297c:	a1 05       	cpc	r26, r1
    297e:	b1 05       	cpc	r27, r1
    2980:	39 f4       	brne	.+14     	; 0x2990 <__pack_f+0xee>
    2982:	27 ff       	sbrs	r18, 7
    2984:	09 c0       	rjmp	.+18     	; 0x2998 <__pack_f+0xf6>
    2986:	20 5c       	subi	r18, 0xC0	; 192
    2988:	3f 4f       	sbci	r19, 0xFF	; 255
    298a:	4f 4f       	sbci	r20, 0xFF	; 255
    298c:	5f 4f       	sbci	r21, 0xFF	; 255
    298e:	04 c0       	rjmp	.+8      	; 0x2998 <__pack_f+0xf6>
    2990:	21 5c       	subi	r18, 0xC1	; 193
    2992:	3f 4f       	sbci	r19, 0xFF	; 255
    2994:	4f 4f       	sbci	r20, 0xFF	; 255
    2996:	5f 4f       	sbci	r21, 0xFF	; 255
    2998:	e0 e0       	ldi	r30, 0x00	; 0
    299a:	f0 e0       	ldi	r31, 0x00	; 0
    299c:	20 30       	cpi	r18, 0x00	; 0
    299e:	a0 e0       	ldi	r26, 0x00	; 0
    29a0:	3a 07       	cpc	r19, r26
    29a2:	a0 e0       	ldi	r26, 0x00	; 0
    29a4:	4a 07       	cpc	r20, r26
    29a6:	a0 e4       	ldi	r26, 0x40	; 64
    29a8:	5a 07       	cpc	r21, r26
    29aa:	10 f0       	brcs	.+4      	; 0x29b0 <__pack_f+0x10e>
    29ac:	e1 e0       	ldi	r30, 0x01	; 1
    29ae:	f0 e0       	ldi	r31, 0x00	; 0
    29b0:	79 01       	movw	r14, r18
    29b2:	8a 01       	movw	r16, r20
    29b4:	27 c0       	rjmp	.+78     	; 0x2a04 <__pack_f+0x162>
    29b6:	60 38       	cpi	r22, 0x80	; 128
    29b8:	71 05       	cpc	r23, r1
    29ba:	64 f5       	brge	.+88     	; 0x2a14 <__pack_f+0x172>
    29bc:	fb 01       	movw	r30, r22
    29be:	e1 58       	subi	r30, 0x81	; 129
    29c0:	ff 4f       	sbci	r31, 0xFF	; 255
    29c2:	d8 01       	movw	r26, r16
    29c4:	c7 01       	movw	r24, r14
    29c6:	8f 77       	andi	r24, 0x7F	; 127
    29c8:	90 70       	andi	r25, 0x00	; 0
    29ca:	a0 70       	andi	r26, 0x00	; 0
    29cc:	b0 70       	andi	r27, 0x00	; 0
    29ce:	80 34       	cpi	r24, 0x40	; 64
    29d0:	91 05       	cpc	r25, r1
    29d2:	a1 05       	cpc	r26, r1
    29d4:	b1 05       	cpc	r27, r1
    29d6:	39 f4       	brne	.+14     	; 0x29e6 <__pack_f+0x144>
    29d8:	e7 fe       	sbrs	r14, 7
    29da:	0d c0       	rjmp	.+26     	; 0x29f6 <__pack_f+0x154>
    29dc:	80 e4       	ldi	r24, 0x40	; 64
    29de:	90 e0       	ldi	r25, 0x00	; 0
    29e0:	a0 e0       	ldi	r26, 0x00	; 0
    29e2:	b0 e0       	ldi	r27, 0x00	; 0
    29e4:	04 c0       	rjmp	.+8      	; 0x29ee <__pack_f+0x14c>
    29e6:	8f e3       	ldi	r24, 0x3F	; 63
    29e8:	90 e0       	ldi	r25, 0x00	; 0
    29ea:	a0 e0       	ldi	r26, 0x00	; 0
    29ec:	b0 e0       	ldi	r27, 0x00	; 0
    29ee:	e8 0e       	add	r14, r24
    29f0:	f9 1e       	adc	r15, r25
    29f2:	0a 1f       	adc	r16, r26
    29f4:	1b 1f       	adc	r17, r27
    29f6:	17 ff       	sbrs	r17, 7
    29f8:	05 c0       	rjmp	.+10     	; 0x2a04 <__pack_f+0x162>
    29fa:	16 95       	lsr	r17
    29fc:	07 95       	ror	r16
    29fe:	f7 94       	ror	r15
    2a00:	e7 94       	ror	r14
    2a02:	31 96       	adiw	r30, 0x01	; 1
    2a04:	87 e0       	ldi	r24, 0x07	; 7
    2a06:	16 95       	lsr	r17
    2a08:	07 95       	ror	r16
    2a0a:	f7 94       	ror	r15
    2a0c:	e7 94       	ror	r14
    2a0e:	8a 95       	dec	r24
    2a10:	d1 f7       	brne	.-12     	; 0x2a06 <__pack_f+0x164>
    2a12:	05 c0       	rjmp	.+10     	; 0x2a1e <__pack_f+0x17c>
    2a14:	ee 24       	eor	r14, r14
    2a16:	ff 24       	eor	r15, r15
    2a18:	87 01       	movw	r16, r14
    2a1a:	ef ef       	ldi	r30, 0xFF	; 255
    2a1c:	f0 e0       	ldi	r31, 0x00	; 0
    2a1e:	6e 2f       	mov	r22, r30
    2a20:	67 95       	ror	r22
    2a22:	66 27       	eor	r22, r22
    2a24:	67 95       	ror	r22
    2a26:	90 2f       	mov	r25, r16
    2a28:	9f 77       	andi	r25, 0x7F	; 127
    2a2a:	d7 94       	ror	r13
    2a2c:	dd 24       	eor	r13, r13
    2a2e:	d7 94       	ror	r13
    2a30:	8e 2f       	mov	r24, r30
    2a32:	86 95       	lsr	r24
    2a34:	49 2f       	mov	r20, r25
    2a36:	46 2b       	or	r20, r22
    2a38:	58 2f       	mov	r21, r24
    2a3a:	5d 29       	or	r21, r13
    2a3c:	b7 01       	movw	r22, r14
    2a3e:	ca 01       	movw	r24, r20
    2a40:	1f 91       	pop	r17
    2a42:	0f 91       	pop	r16
    2a44:	ff 90       	pop	r15
    2a46:	ef 90       	pop	r14
    2a48:	df 90       	pop	r13
    2a4a:	08 95       	ret

00002a4c <__unpack_f>:
    2a4c:	fc 01       	movw	r30, r24
    2a4e:	db 01       	movw	r26, r22
    2a50:	40 81       	ld	r20, Z
    2a52:	51 81       	ldd	r21, Z+1	; 0x01
    2a54:	22 81       	ldd	r18, Z+2	; 0x02
    2a56:	62 2f       	mov	r22, r18
    2a58:	6f 77       	andi	r22, 0x7F	; 127
    2a5a:	70 e0       	ldi	r23, 0x00	; 0
    2a5c:	22 1f       	adc	r18, r18
    2a5e:	22 27       	eor	r18, r18
    2a60:	22 1f       	adc	r18, r18
    2a62:	93 81       	ldd	r25, Z+3	; 0x03
    2a64:	89 2f       	mov	r24, r25
    2a66:	88 0f       	add	r24, r24
    2a68:	82 2b       	or	r24, r18
    2a6a:	28 2f       	mov	r18, r24
    2a6c:	30 e0       	ldi	r19, 0x00	; 0
    2a6e:	99 1f       	adc	r25, r25
    2a70:	99 27       	eor	r25, r25
    2a72:	99 1f       	adc	r25, r25
    2a74:	11 96       	adiw	r26, 0x01	; 1
    2a76:	9c 93       	st	X, r25
    2a78:	11 97       	sbiw	r26, 0x01	; 1
    2a7a:	21 15       	cp	r18, r1
    2a7c:	31 05       	cpc	r19, r1
    2a7e:	a9 f5       	brne	.+106    	; 0x2aea <__unpack_f+0x9e>
    2a80:	41 15       	cp	r20, r1
    2a82:	51 05       	cpc	r21, r1
    2a84:	61 05       	cpc	r22, r1
    2a86:	71 05       	cpc	r23, r1
    2a88:	11 f4       	brne	.+4      	; 0x2a8e <__unpack_f+0x42>
    2a8a:	82 e0       	ldi	r24, 0x02	; 2
    2a8c:	37 c0       	rjmp	.+110    	; 0x2afc <__unpack_f+0xb0>
    2a8e:	82 e8       	ldi	r24, 0x82	; 130
    2a90:	9f ef       	ldi	r25, 0xFF	; 255
    2a92:	13 96       	adiw	r26, 0x03	; 3
    2a94:	9c 93       	st	X, r25
    2a96:	8e 93       	st	-X, r24
    2a98:	12 97       	sbiw	r26, 0x02	; 2
    2a9a:	9a 01       	movw	r18, r20
    2a9c:	ab 01       	movw	r20, r22
    2a9e:	67 e0       	ldi	r22, 0x07	; 7
    2aa0:	22 0f       	add	r18, r18
    2aa2:	33 1f       	adc	r19, r19
    2aa4:	44 1f       	adc	r20, r20
    2aa6:	55 1f       	adc	r21, r21
    2aa8:	6a 95       	dec	r22
    2aaa:	d1 f7       	brne	.-12     	; 0x2aa0 <__unpack_f+0x54>
    2aac:	83 e0       	ldi	r24, 0x03	; 3
    2aae:	8c 93       	st	X, r24
    2ab0:	0d c0       	rjmp	.+26     	; 0x2acc <__unpack_f+0x80>
    2ab2:	22 0f       	add	r18, r18
    2ab4:	33 1f       	adc	r19, r19
    2ab6:	44 1f       	adc	r20, r20
    2ab8:	55 1f       	adc	r21, r21
    2aba:	12 96       	adiw	r26, 0x02	; 2
    2abc:	8d 91       	ld	r24, X+
    2abe:	9c 91       	ld	r25, X
    2ac0:	13 97       	sbiw	r26, 0x03	; 3
    2ac2:	01 97       	sbiw	r24, 0x01	; 1
    2ac4:	13 96       	adiw	r26, 0x03	; 3
    2ac6:	9c 93       	st	X, r25
    2ac8:	8e 93       	st	-X, r24
    2aca:	12 97       	sbiw	r26, 0x02	; 2
    2acc:	20 30       	cpi	r18, 0x00	; 0
    2ace:	80 e0       	ldi	r24, 0x00	; 0
    2ad0:	38 07       	cpc	r19, r24
    2ad2:	80 e0       	ldi	r24, 0x00	; 0
    2ad4:	48 07       	cpc	r20, r24
    2ad6:	80 e4       	ldi	r24, 0x40	; 64
    2ad8:	58 07       	cpc	r21, r24
    2ada:	58 f3       	brcs	.-42     	; 0x2ab2 <__unpack_f+0x66>
    2adc:	14 96       	adiw	r26, 0x04	; 4
    2ade:	2d 93       	st	X+, r18
    2ae0:	3d 93       	st	X+, r19
    2ae2:	4d 93       	st	X+, r20
    2ae4:	5c 93       	st	X, r21
    2ae6:	17 97       	sbiw	r26, 0x07	; 7
    2ae8:	08 95       	ret
    2aea:	2f 3f       	cpi	r18, 0xFF	; 255
    2aec:	31 05       	cpc	r19, r1
    2aee:	79 f4       	brne	.+30     	; 0x2b0e <__unpack_f+0xc2>
    2af0:	41 15       	cp	r20, r1
    2af2:	51 05       	cpc	r21, r1
    2af4:	61 05       	cpc	r22, r1
    2af6:	71 05       	cpc	r23, r1
    2af8:	19 f4       	brne	.+6      	; 0x2b00 <__unpack_f+0xb4>
    2afa:	84 e0       	ldi	r24, 0x04	; 4
    2afc:	8c 93       	st	X, r24
    2afe:	08 95       	ret
    2b00:	64 ff       	sbrs	r22, 4
    2b02:	03 c0       	rjmp	.+6      	; 0x2b0a <__unpack_f+0xbe>
    2b04:	81 e0       	ldi	r24, 0x01	; 1
    2b06:	8c 93       	st	X, r24
    2b08:	12 c0       	rjmp	.+36     	; 0x2b2e <__unpack_f+0xe2>
    2b0a:	1c 92       	st	X, r1
    2b0c:	10 c0       	rjmp	.+32     	; 0x2b2e <__unpack_f+0xe2>
    2b0e:	2f 57       	subi	r18, 0x7F	; 127
    2b10:	30 40       	sbci	r19, 0x00	; 0
    2b12:	13 96       	adiw	r26, 0x03	; 3
    2b14:	3c 93       	st	X, r19
    2b16:	2e 93       	st	-X, r18
    2b18:	12 97       	sbiw	r26, 0x02	; 2
    2b1a:	83 e0       	ldi	r24, 0x03	; 3
    2b1c:	8c 93       	st	X, r24
    2b1e:	87 e0       	ldi	r24, 0x07	; 7
    2b20:	44 0f       	add	r20, r20
    2b22:	55 1f       	adc	r21, r21
    2b24:	66 1f       	adc	r22, r22
    2b26:	77 1f       	adc	r23, r23
    2b28:	8a 95       	dec	r24
    2b2a:	d1 f7       	brne	.-12     	; 0x2b20 <__unpack_f+0xd4>
    2b2c:	70 64       	ori	r23, 0x40	; 64
    2b2e:	14 96       	adiw	r26, 0x04	; 4
    2b30:	4d 93       	st	X+, r20
    2b32:	5d 93       	st	X+, r21
    2b34:	6d 93       	st	X+, r22
    2b36:	7c 93       	st	X, r23
    2b38:	17 97       	sbiw	r26, 0x07	; 7
    2b3a:	08 95       	ret

00002b3c <__fpcmp_parts_f>:
    2b3c:	1f 93       	push	r17
    2b3e:	dc 01       	movw	r26, r24
    2b40:	fb 01       	movw	r30, r22
    2b42:	9c 91       	ld	r25, X
    2b44:	92 30       	cpi	r25, 0x02	; 2
    2b46:	08 f4       	brcc	.+2      	; 0x2b4a <__fpcmp_parts_f+0xe>
    2b48:	47 c0       	rjmp	.+142    	; 0x2bd8 <__fpcmp_parts_f+0x9c>
    2b4a:	80 81       	ld	r24, Z
    2b4c:	82 30       	cpi	r24, 0x02	; 2
    2b4e:	08 f4       	brcc	.+2      	; 0x2b52 <__fpcmp_parts_f+0x16>
    2b50:	43 c0       	rjmp	.+134    	; 0x2bd8 <__fpcmp_parts_f+0x9c>
    2b52:	94 30       	cpi	r25, 0x04	; 4
    2b54:	51 f4       	brne	.+20     	; 0x2b6a <__fpcmp_parts_f+0x2e>
    2b56:	11 96       	adiw	r26, 0x01	; 1
    2b58:	1c 91       	ld	r17, X
    2b5a:	84 30       	cpi	r24, 0x04	; 4
    2b5c:	99 f5       	brne	.+102    	; 0x2bc4 <__fpcmp_parts_f+0x88>
    2b5e:	81 81       	ldd	r24, Z+1	; 0x01
    2b60:	68 2f       	mov	r22, r24
    2b62:	70 e0       	ldi	r23, 0x00	; 0
    2b64:	61 1b       	sub	r22, r17
    2b66:	71 09       	sbc	r23, r1
    2b68:	3f c0       	rjmp	.+126    	; 0x2be8 <__fpcmp_parts_f+0xac>
    2b6a:	84 30       	cpi	r24, 0x04	; 4
    2b6c:	21 f0       	breq	.+8      	; 0x2b76 <__fpcmp_parts_f+0x3a>
    2b6e:	92 30       	cpi	r25, 0x02	; 2
    2b70:	31 f4       	brne	.+12     	; 0x2b7e <__fpcmp_parts_f+0x42>
    2b72:	82 30       	cpi	r24, 0x02	; 2
    2b74:	b9 f1       	breq	.+110    	; 0x2be4 <__fpcmp_parts_f+0xa8>
    2b76:	81 81       	ldd	r24, Z+1	; 0x01
    2b78:	88 23       	and	r24, r24
    2b7a:	89 f1       	breq	.+98     	; 0x2bde <__fpcmp_parts_f+0xa2>
    2b7c:	2d c0       	rjmp	.+90     	; 0x2bd8 <__fpcmp_parts_f+0x9c>
    2b7e:	11 96       	adiw	r26, 0x01	; 1
    2b80:	1c 91       	ld	r17, X
    2b82:	11 97       	sbiw	r26, 0x01	; 1
    2b84:	82 30       	cpi	r24, 0x02	; 2
    2b86:	f1 f0       	breq	.+60     	; 0x2bc4 <__fpcmp_parts_f+0x88>
    2b88:	81 81       	ldd	r24, Z+1	; 0x01
    2b8a:	18 17       	cp	r17, r24
    2b8c:	d9 f4       	brne	.+54     	; 0x2bc4 <__fpcmp_parts_f+0x88>
    2b8e:	12 96       	adiw	r26, 0x02	; 2
    2b90:	2d 91       	ld	r18, X+
    2b92:	3c 91       	ld	r19, X
    2b94:	13 97       	sbiw	r26, 0x03	; 3
    2b96:	82 81       	ldd	r24, Z+2	; 0x02
    2b98:	93 81       	ldd	r25, Z+3	; 0x03
    2b9a:	82 17       	cp	r24, r18
    2b9c:	93 07       	cpc	r25, r19
    2b9e:	94 f0       	brlt	.+36     	; 0x2bc4 <__fpcmp_parts_f+0x88>
    2ba0:	28 17       	cp	r18, r24
    2ba2:	39 07       	cpc	r19, r25
    2ba4:	bc f0       	brlt	.+46     	; 0x2bd4 <__fpcmp_parts_f+0x98>
    2ba6:	14 96       	adiw	r26, 0x04	; 4
    2ba8:	8d 91       	ld	r24, X+
    2baa:	9d 91       	ld	r25, X+
    2bac:	0d 90       	ld	r0, X+
    2bae:	bc 91       	ld	r27, X
    2bb0:	a0 2d       	mov	r26, r0
    2bb2:	24 81       	ldd	r18, Z+4	; 0x04
    2bb4:	35 81       	ldd	r19, Z+5	; 0x05
    2bb6:	46 81       	ldd	r20, Z+6	; 0x06
    2bb8:	57 81       	ldd	r21, Z+7	; 0x07
    2bba:	28 17       	cp	r18, r24
    2bbc:	39 07       	cpc	r19, r25
    2bbe:	4a 07       	cpc	r20, r26
    2bc0:	5b 07       	cpc	r21, r27
    2bc2:	18 f4       	brcc	.+6      	; 0x2bca <__fpcmp_parts_f+0x8e>
    2bc4:	11 23       	and	r17, r17
    2bc6:	41 f0       	breq	.+16     	; 0x2bd8 <__fpcmp_parts_f+0x9c>
    2bc8:	0a c0       	rjmp	.+20     	; 0x2bde <__fpcmp_parts_f+0xa2>
    2bca:	82 17       	cp	r24, r18
    2bcc:	93 07       	cpc	r25, r19
    2bce:	a4 07       	cpc	r26, r20
    2bd0:	b5 07       	cpc	r27, r21
    2bd2:	40 f4       	brcc	.+16     	; 0x2be4 <__fpcmp_parts_f+0xa8>
    2bd4:	11 23       	and	r17, r17
    2bd6:	19 f0       	breq	.+6      	; 0x2bde <__fpcmp_parts_f+0xa2>
    2bd8:	61 e0       	ldi	r22, 0x01	; 1
    2bda:	70 e0       	ldi	r23, 0x00	; 0
    2bdc:	05 c0       	rjmp	.+10     	; 0x2be8 <__fpcmp_parts_f+0xac>
    2bde:	6f ef       	ldi	r22, 0xFF	; 255
    2be0:	7f ef       	ldi	r23, 0xFF	; 255
    2be2:	02 c0       	rjmp	.+4      	; 0x2be8 <__fpcmp_parts_f+0xac>
    2be4:	60 e0       	ldi	r22, 0x00	; 0
    2be6:	70 e0       	ldi	r23, 0x00	; 0
    2be8:	cb 01       	movw	r24, r22
    2bea:	1f 91       	pop	r17
    2bec:	08 95       	ret

00002bee <malloc>:
    2bee:	cf 93       	push	r28
    2bf0:	df 93       	push	r29
    2bf2:	bc 01       	movw	r22, r24
    2bf4:	82 30       	cpi	r24, 0x02	; 2
    2bf6:	91 05       	cpc	r25, r1
    2bf8:	10 f4       	brcc	.+4      	; 0x2bfe <malloc+0x10>
    2bfa:	62 e0       	ldi	r22, 0x02	; 2
    2bfc:	70 e0       	ldi	r23, 0x00	; 0
    2bfe:	a0 91 9a 2a 	lds	r26, 0x2A9A
    2c02:	b0 91 9b 2a 	lds	r27, 0x2A9B
    2c06:	ed 01       	movw	r28, r26
    2c08:	e0 e0       	ldi	r30, 0x00	; 0
    2c0a:	f0 e0       	ldi	r31, 0x00	; 0
    2c0c:	40 e0       	ldi	r20, 0x00	; 0
    2c0e:	50 e0       	ldi	r21, 0x00	; 0
    2c10:	21 c0       	rjmp	.+66     	; 0x2c54 <malloc+0x66>
    2c12:	88 81       	ld	r24, Y
    2c14:	99 81       	ldd	r25, Y+1	; 0x01
    2c16:	86 17       	cp	r24, r22
    2c18:	97 07       	cpc	r25, r23
    2c1a:	69 f4       	brne	.+26     	; 0x2c36 <malloc+0x48>
    2c1c:	8a 81       	ldd	r24, Y+2	; 0x02
    2c1e:	9b 81       	ldd	r25, Y+3	; 0x03
    2c20:	30 97       	sbiw	r30, 0x00	; 0
    2c22:	19 f0       	breq	.+6      	; 0x2c2a <malloc+0x3c>
    2c24:	93 83       	std	Z+3, r25	; 0x03
    2c26:	82 83       	std	Z+2, r24	; 0x02
    2c28:	04 c0       	rjmp	.+8      	; 0x2c32 <malloc+0x44>
    2c2a:	90 93 9b 2a 	sts	0x2A9B, r25
    2c2e:	80 93 9a 2a 	sts	0x2A9A, r24
    2c32:	fe 01       	movw	r30, r28
    2c34:	34 c0       	rjmp	.+104    	; 0x2c9e <malloc+0xb0>
    2c36:	68 17       	cp	r22, r24
    2c38:	79 07       	cpc	r23, r25
    2c3a:	38 f4       	brcc	.+14     	; 0x2c4a <malloc+0x5c>
    2c3c:	41 15       	cp	r20, r1
    2c3e:	51 05       	cpc	r21, r1
    2c40:	19 f0       	breq	.+6      	; 0x2c48 <malloc+0x5a>
    2c42:	84 17       	cp	r24, r20
    2c44:	95 07       	cpc	r25, r21
    2c46:	08 f4       	brcc	.+2      	; 0x2c4a <malloc+0x5c>
    2c48:	ac 01       	movw	r20, r24
    2c4a:	fe 01       	movw	r30, r28
    2c4c:	8a 81       	ldd	r24, Y+2	; 0x02
    2c4e:	9b 81       	ldd	r25, Y+3	; 0x03
    2c50:	9c 01       	movw	r18, r24
    2c52:	e9 01       	movw	r28, r18
    2c54:	20 97       	sbiw	r28, 0x00	; 0
    2c56:	e9 f6       	brne	.-70     	; 0x2c12 <malloc+0x24>
    2c58:	41 15       	cp	r20, r1
    2c5a:	51 05       	cpc	r21, r1
    2c5c:	a9 f1       	breq	.+106    	; 0x2cc8 <malloc+0xda>
    2c5e:	ca 01       	movw	r24, r20
    2c60:	86 1b       	sub	r24, r22
    2c62:	97 0b       	sbc	r25, r23
    2c64:	04 97       	sbiw	r24, 0x04	; 4
    2c66:	08 f4       	brcc	.+2      	; 0x2c6a <malloc+0x7c>
    2c68:	ba 01       	movw	r22, r20
    2c6a:	e0 e0       	ldi	r30, 0x00	; 0
    2c6c:	f0 e0       	ldi	r31, 0x00	; 0
    2c6e:	2a c0       	rjmp	.+84     	; 0x2cc4 <malloc+0xd6>
    2c70:	8d 91       	ld	r24, X+
    2c72:	9c 91       	ld	r25, X
    2c74:	11 97       	sbiw	r26, 0x01	; 1
    2c76:	84 17       	cp	r24, r20
    2c78:	95 07       	cpc	r25, r21
    2c7a:	f9 f4       	brne	.+62     	; 0x2cba <malloc+0xcc>
    2c7c:	64 17       	cp	r22, r20
    2c7e:	75 07       	cpc	r23, r21
    2c80:	81 f4       	brne	.+32     	; 0x2ca2 <malloc+0xb4>
    2c82:	12 96       	adiw	r26, 0x02	; 2
    2c84:	8d 91       	ld	r24, X+
    2c86:	9c 91       	ld	r25, X
    2c88:	13 97       	sbiw	r26, 0x03	; 3
    2c8a:	30 97       	sbiw	r30, 0x00	; 0
    2c8c:	19 f0       	breq	.+6      	; 0x2c94 <malloc+0xa6>
    2c8e:	93 83       	std	Z+3, r25	; 0x03
    2c90:	82 83       	std	Z+2, r24	; 0x02
    2c92:	04 c0       	rjmp	.+8      	; 0x2c9c <malloc+0xae>
    2c94:	90 93 9b 2a 	sts	0x2A9B, r25
    2c98:	80 93 9a 2a 	sts	0x2A9A, r24
    2c9c:	fd 01       	movw	r30, r26
    2c9e:	32 96       	adiw	r30, 0x02	; 2
    2ca0:	4f c0       	rjmp	.+158    	; 0x2d40 <malloc+0x152>
    2ca2:	ca 01       	movw	r24, r20
    2ca4:	86 1b       	sub	r24, r22
    2ca6:	97 0b       	sbc	r25, r23
    2ca8:	fd 01       	movw	r30, r26
    2caa:	e8 0f       	add	r30, r24
    2cac:	f9 1f       	adc	r31, r25
    2cae:	61 93       	st	Z+, r22
    2cb0:	71 93       	st	Z+, r23
    2cb2:	02 97       	sbiw	r24, 0x02	; 2
    2cb4:	8d 93       	st	X+, r24
    2cb6:	9c 93       	st	X, r25
    2cb8:	43 c0       	rjmp	.+134    	; 0x2d40 <malloc+0x152>
    2cba:	fd 01       	movw	r30, r26
    2cbc:	82 81       	ldd	r24, Z+2	; 0x02
    2cbe:	93 81       	ldd	r25, Z+3	; 0x03
    2cc0:	9c 01       	movw	r18, r24
    2cc2:	d9 01       	movw	r26, r18
    2cc4:	10 97       	sbiw	r26, 0x00	; 0
    2cc6:	a1 f6       	brne	.-88     	; 0x2c70 <malloc+0x82>
    2cc8:	80 91 98 2a 	lds	r24, 0x2A98
    2ccc:	90 91 99 2a 	lds	r25, 0x2A99
    2cd0:	89 2b       	or	r24, r25
    2cd2:	41 f4       	brne	.+16     	; 0x2ce4 <malloc+0xf6>
    2cd4:	80 91 2b 04 	lds	r24, 0x042B
    2cd8:	90 91 2c 04 	lds	r25, 0x042C
    2cdc:	90 93 99 2a 	sts	0x2A99, r25
    2ce0:	80 93 98 2a 	sts	0x2A98, r24
    2ce4:	40 91 2d 04 	lds	r20, 0x042D
    2ce8:	50 91 2e 04 	lds	r21, 0x042E
    2cec:	41 15       	cp	r20, r1
    2cee:	51 05       	cpc	r21, r1
    2cf0:	41 f4       	brne	.+16     	; 0x2d02 <malloc+0x114>
    2cf2:	4d b7       	in	r20, 0x3d	; 61
    2cf4:	5e b7       	in	r21, 0x3e	; 62
    2cf6:	80 91 29 04 	lds	r24, 0x0429
    2cfa:	90 91 2a 04 	lds	r25, 0x042A
    2cfe:	48 1b       	sub	r20, r24
    2d00:	59 0b       	sbc	r21, r25
    2d02:	20 91 98 2a 	lds	r18, 0x2A98
    2d06:	30 91 99 2a 	lds	r19, 0x2A99
    2d0a:	24 17       	cp	r18, r20
    2d0c:	35 07       	cpc	r19, r21
    2d0e:	b0 f4       	brcc	.+44     	; 0x2d3c <malloc+0x14e>
    2d10:	ca 01       	movw	r24, r20
    2d12:	82 1b       	sub	r24, r18
    2d14:	93 0b       	sbc	r25, r19
    2d16:	86 17       	cp	r24, r22
    2d18:	97 07       	cpc	r25, r23
    2d1a:	80 f0       	brcs	.+32     	; 0x2d3c <malloc+0x14e>
    2d1c:	ab 01       	movw	r20, r22
    2d1e:	4e 5f       	subi	r20, 0xFE	; 254
    2d20:	5f 4f       	sbci	r21, 0xFF	; 255
    2d22:	84 17       	cp	r24, r20
    2d24:	95 07       	cpc	r25, r21
    2d26:	50 f0       	brcs	.+20     	; 0x2d3c <malloc+0x14e>
    2d28:	42 0f       	add	r20, r18
    2d2a:	53 1f       	adc	r21, r19
    2d2c:	50 93 99 2a 	sts	0x2A99, r21
    2d30:	40 93 98 2a 	sts	0x2A98, r20
    2d34:	f9 01       	movw	r30, r18
    2d36:	61 93       	st	Z+, r22
    2d38:	71 93       	st	Z+, r23
    2d3a:	02 c0       	rjmp	.+4      	; 0x2d40 <malloc+0x152>
    2d3c:	e0 e0       	ldi	r30, 0x00	; 0
    2d3e:	f0 e0       	ldi	r31, 0x00	; 0
    2d40:	cf 01       	movw	r24, r30
    2d42:	df 91       	pop	r29
    2d44:	cf 91       	pop	r28
    2d46:	08 95       	ret

00002d48 <free>:
    2d48:	cf 93       	push	r28
    2d4a:	df 93       	push	r29
    2d4c:	00 97       	sbiw	r24, 0x00	; 0
    2d4e:	09 f4       	brne	.+2      	; 0x2d52 <free+0xa>
    2d50:	50 c0       	rjmp	.+160    	; 0x2df2 <free+0xaa>
    2d52:	ec 01       	movw	r28, r24
    2d54:	22 97       	sbiw	r28, 0x02	; 2
    2d56:	1b 82       	std	Y+3, r1	; 0x03
    2d58:	1a 82       	std	Y+2, r1	; 0x02
    2d5a:	a0 91 9a 2a 	lds	r26, 0x2A9A
    2d5e:	b0 91 9b 2a 	lds	r27, 0x2A9B
    2d62:	10 97       	sbiw	r26, 0x00	; 0
    2d64:	09 f1       	breq	.+66     	; 0x2da8 <free+0x60>
    2d66:	40 e0       	ldi	r20, 0x00	; 0
    2d68:	50 e0       	ldi	r21, 0x00	; 0
    2d6a:	ac 17       	cp	r26, r28
    2d6c:	bd 07       	cpc	r27, r29
    2d6e:	08 f1       	brcs	.+66     	; 0x2db2 <free+0x6a>
    2d70:	bb 83       	std	Y+3, r27	; 0x03
    2d72:	aa 83       	std	Y+2, r26	; 0x02
    2d74:	fe 01       	movw	r30, r28
    2d76:	21 91       	ld	r18, Z+
    2d78:	31 91       	ld	r19, Z+
    2d7a:	e2 0f       	add	r30, r18
    2d7c:	f3 1f       	adc	r31, r19
    2d7e:	ae 17       	cp	r26, r30
    2d80:	bf 07       	cpc	r27, r31
    2d82:	79 f4       	brne	.+30     	; 0x2da2 <free+0x5a>
    2d84:	8d 91       	ld	r24, X+
    2d86:	9c 91       	ld	r25, X
    2d88:	11 97       	sbiw	r26, 0x01	; 1
    2d8a:	28 0f       	add	r18, r24
    2d8c:	39 1f       	adc	r19, r25
    2d8e:	2e 5f       	subi	r18, 0xFE	; 254
    2d90:	3f 4f       	sbci	r19, 0xFF	; 255
    2d92:	39 83       	std	Y+1, r19	; 0x01
    2d94:	28 83       	st	Y, r18
    2d96:	12 96       	adiw	r26, 0x02	; 2
    2d98:	8d 91       	ld	r24, X+
    2d9a:	9c 91       	ld	r25, X
    2d9c:	13 97       	sbiw	r26, 0x03	; 3
    2d9e:	9b 83       	std	Y+3, r25	; 0x03
    2da0:	8a 83       	std	Y+2, r24	; 0x02
    2da2:	41 15       	cp	r20, r1
    2da4:	51 05       	cpc	r21, r1
    2da6:	71 f4       	brne	.+28     	; 0x2dc4 <free+0x7c>
    2da8:	d0 93 9b 2a 	sts	0x2A9B, r29
    2dac:	c0 93 9a 2a 	sts	0x2A9A, r28
    2db0:	20 c0       	rjmp	.+64     	; 0x2df2 <free+0xaa>
    2db2:	12 96       	adiw	r26, 0x02	; 2
    2db4:	8d 91       	ld	r24, X+
    2db6:	9c 91       	ld	r25, X
    2db8:	13 97       	sbiw	r26, 0x03	; 3
    2dba:	ad 01       	movw	r20, r26
    2dbc:	00 97       	sbiw	r24, 0x00	; 0
    2dbe:	11 f0       	breq	.+4      	; 0x2dc4 <free+0x7c>
    2dc0:	dc 01       	movw	r26, r24
    2dc2:	d3 cf       	rjmp	.-90     	; 0x2d6a <free+0x22>
    2dc4:	fa 01       	movw	r30, r20
    2dc6:	d3 83       	std	Z+3, r29	; 0x03
    2dc8:	c2 83       	std	Z+2, r28	; 0x02
    2dca:	21 91       	ld	r18, Z+
    2dcc:	31 91       	ld	r19, Z+
    2dce:	e2 0f       	add	r30, r18
    2dd0:	f3 1f       	adc	r31, r19
    2dd2:	ce 17       	cp	r28, r30
    2dd4:	df 07       	cpc	r29, r31
    2dd6:	69 f4       	brne	.+26     	; 0x2df2 <free+0xaa>
    2dd8:	88 81       	ld	r24, Y
    2dda:	99 81       	ldd	r25, Y+1	; 0x01
    2ddc:	28 0f       	add	r18, r24
    2dde:	39 1f       	adc	r19, r25
    2de0:	2e 5f       	subi	r18, 0xFE	; 254
    2de2:	3f 4f       	sbci	r19, 0xFF	; 255
    2de4:	fa 01       	movw	r30, r20
    2de6:	31 83       	std	Z+1, r19	; 0x01
    2de8:	20 83       	st	Z, r18
    2dea:	8a 81       	ldd	r24, Y+2	; 0x02
    2dec:	9b 81       	ldd	r25, Y+3	; 0x03
    2dee:	93 83       	std	Z+3, r25	; 0x03
    2df0:	82 83       	std	Z+2, r24	; 0x02
    2df2:	df 91       	pop	r29
    2df4:	cf 91       	pop	r28
    2df6:	08 95       	ret

00002df8 <__udivmodhi4>:
    2df8:	aa 1b       	sub	r26, r26
    2dfa:	bb 1b       	sub	r27, r27
    2dfc:	51 e1       	ldi	r21, 0x11	; 17
    2dfe:	07 c0       	rjmp	.+14     	; 0x2e0e <__udivmodhi4_ep>

00002e00 <__udivmodhi4_loop>:
    2e00:	aa 1f       	adc	r26, r26
    2e02:	bb 1f       	adc	r27, r27
    2e04:	a6 17       	cp	r26, r22
    2e06:	b7 07       	cpc	r27, r23
    2e08:	10 f0       	brcs	.+4      	; 0x2e0e <__udivmodhi4_ep>
    2e0a:	a6 1b       	sub	r26, r22
    2e0c:	b7 0b       	sbc	r27, r23

00002e0e <__udivmodhi4_ep>:
    2e0e:	88 1f       	adc	r24, r24
    2e10:	99 1f       	adc	r25, r25
    2e12:	5a 95       	dec	r21
    2e14:	a9 f7       	brne	.-22     	; 0x2e00 <__udivmodhi4_loop>
    2e16:	80 95       	com	r24
    2e18:	90 95       	com	r25
    2e1a:	bc 01       	movw	r22, r24
    2e1c:	cd 01       	movw	r24, r26
    2e1e:	08 95       	ret

00002e20 <__prologue_saves__>:
    2e20:	2f 92       	push	r2
    2e22:	3f 92       	push	r3
    2e24:	4f 92       	push	r4
    2e26:	5f 92       	push	r5
    2e28:	6f 92       	push	r6
    2e2a:	7f 92       	push	r7
    2e2c:	8f 92       	push	r8
    2e2e:	9f 92       	push	r9
    2e30:	af 92       	push	r10
    2e32:	bf 92       	push	r11
    2e34:	cf 92       	push	r12
    2e36:	df 92       	push	r13
    2e38:	ef 92       	push	r14
    2e3a:	ff 92       	push	r15
    2e3c:	0f 93       	push	r16
    2e3e:	1f 93       	push	r17
    2e40:	cf 93       	push	r28
    2e42:	df 93       	push	r29
    2e44:	cd b7       	in	r28, 0x3d	; 61
    2e46:	de b7       	in	r29, 0x3e	; 62
    2e48:	ca 1b       	sub	r28, r26
    2e4a:	db 0b       	sbc	r29, r27
    2e4c:	0f b6       	in	r0, 0x3f	; 63
    2e4e:	f8 94       	cli
    2e50:	de bf       	out	0x3e, r29	; 62
    2e52:	0f be       	out	0x3f, r0	; 63
    2e54:	cd bf       	out	0x3d, r28	; 61
    2e56:	19 94       	eijmp

00002e58 <__epilogue_restores__>:
    2e58:	2a 88       	ldd	r2, Y+18	; 0x12
    2e5a:	39 88       	ldd	r3, Y+17	; 0x11
    2e5c:	48 88       	ldd	r4, Y+16	; 0x10
    2e5e:	5f 84       	ldd	r5, Y+15	; 0x0f
    2e60:	6e 84       	ldd	r6, Y+14	; 0x0e
    2e62:	7d 84       	ldd	r7, Y+13	; 0x0d
    2e64:	8c 84       	ldd	r8, Y+12	; 0x0c
    2e66:	9b 84       	ldd	r9, Y+11	; 0x0b
    2e68:	aa 84       	ldd	r10, Y+10	; 0x0a
    2e6a:	b9 84       	ldd	r11, Y+9	; 0x09
    2e6c:	c8 84       	ldd	r12, Y+8	; 0x08
    2e6e:	df 80       	ldd	r13, Y+7	; 0x07
    2e70:	ee 80       	ldd	r14, Y+6	; 0x06
    2e72:	fd 80       	ldd	r15, Y+5	; 0x05
    2e74:	0c 81       	ldd	r16, Y+4	; 0x04
    2e76:	1b 81       	ldd	r17, Y+3	; 0x03
    2e78:	aa 81       	ldd	r26, Y+2	; 0x02
    2e7a:	b9 81       	ldd	r27, Y+1	; 0x01
    2e7c:	ce 0f       	add	r28, r30
    2e7e:	d1 1d       	adc	r29, r1
    2e80:	0f b6       	in	r0, 0x3f	; 63
    2e82:	f8 94       	cli
    2e84:	de bf       	out	0x3e, r29	; 62
    2e86:	0f be       	out	0x3f, r0	; 63
    2e88:	cd bf       	out	0x3d, r28	; 61
    2e8a:	ed 01       	movw	r28, r26
    2e8c:	08 95       	ret

00002e8e <_exit>:
    2e8e:	f8 94       	cli

00002e90 <__stop_program>:
    2e90:	ff cf       	rjmp	.-2      	; 0x2e90 <__stop_program>
